(dp0
S'docWidth'
p1
I395
sS'ocrResults'
p2
(dp3
I0
S'J11'
p4
sI1
S'I w'
p5
sI2
S'U1 3'
p6
sI3
S'1'
p7
sI4
S'Ir'
p8
sI5
S'511'
p9
sI6
S'vi\nll'
p10
sI7
S'In'
p11
sI8
S'Fink'
p12
sI9
S'In'
p13
sI10
S'LX113'
p14
sI11
S'n'
p15
sI12
S'Lnl'
p16
sI13
S'rm'
p17
sI14
S'HT'
p18
sI15
S'J10'
p19
sI16
S'V12'
p20
sI17
S'Ix'
p21
sI18
S'P11'
p22
sI19
S'32'
p23
sI20
S'I1'
p24
sI21
S'ail'
p25
sI22
S'up'
p26
sI23
S'll'
p27
sI24
S'In'
p28
sI25
g7
sI26
S'MM'
p29
sI27
S'if'
p30
sI28
S'pg w'
p31
sI29
S'M75'
p32
sI30
S'Q11'
p33
ssS'transform'
p34
cnumpy.core.multiarray
_reconstruct
p35
(cnumpy
ndarray
p36
(I0
tp37
S'b'
p38
tp39
Rp40
(I1
(I3
I3
tp41
cnumpy
dtype
p42
(S'f4'
p43
I0
I1
tp44
Rp45
(I3
S'<'
p46
NNNI-1
I-1
I0
tp47
bI00
S'\xf9\xebh?\xf3\xeb\x92\xbd\xf0Y\xe8\xc2\xf2\x03\x06=M\x99g?2\xa2\x9d\xc2\x90d\x1b\xb9\xa6\x98\x05\xb9\x00\x00\x80?'
p48
tp49
bsS'docHeight'
p50
I305
sS'documentCorners'
p51
(lp52
(F134.1731414794922
F82.26841735839844
tp53
a(F529.3659057617188
F67.97594451904297
tp54
a(F535.879150390625
F362.5299072265625
tp55
a(F158.72666931152344
F393.6752014160156
tp56
asS'smallBoxes'
p57
(lp58
(F162.45266005410278
F300.0901713255185
F9.522091974752028
F4.90532010820559
tp59
a(F46.456266907123535
F295.47339945897204
F8.367899008115419
F4.039675383228134
tp60
a(F49.63029756537421
F279.8917944093778
F11.541929666366094
F4.616771866546438
tp61
a(F155.23895401262396
F265.4643823264202
F8.944995491433724
F4.616771866546438
tp62
a(F110.51397655545536
F251.03697024346258
F8.079350766456267
F3.751127141568981
tp63
a(F89.73850315599638
F240.93778178539225
F6.925157799819657
F4.616771866546438
tp64
a(F261.42470694319206
F238.34084761045986
F7.502254283137962
F5.193868349864743
tp65
a(F49.05320108205591
F231.4156898106402
F5.770964833183047
F3.1740306582506763
tp66
a(F64.63480613165014
F224.7790802524797
F8.65644724977457
F4.328223624887285
tp67
a(F228.5302073940487
F223.91343552750223
F8.65644724977457
F3.1740306582506763
tp68
a(F45.87917042380523
F218.43101893597836
F11.541929666366094
F4.616771866546438
tp69
a(F24.526600541027953
F214.10279531109106
F6.925157799819657
F3.4625788999098286
tp70
a(F32.60595130748422
F212.37150586113614
F5.482416591523895
F3.1740306582506763
tp71
a(F50.207394048692514
F173.70604147880974
F8.944995491433724
F3.1740306582506763
tp72
a(F280.75743913435525
F164.47249774571685
F6.6366095581605045
F3.751127141568981
tp73
a(F124.65284039675383
F99.83769161406673
F7.502254283137962
F4.328223624887285
tp74
a(F298.0703336339044
F98.97204688908927
F7.213706041478809
F4.328223624887285
tp75
a(F381.1722272317403
F96.66366095581604
F4.039675383228134
F3.1740306582506763
tp76
a(F20.77547339945897
F88.00721370604147
F9.81064021641118
F3.4625788999098286
tp77
a(F367.61045987376013
F71.84851217312894
F6.0595130748422
F4.039675383228134
tp78
a(F157.25879170423804
F64.63480613165014
F8.079350766456267
F3.751127141568981
tp79
a(F373.6699729486023
F54.5356176735798
F9.81064021641118
F7.790802524797114
tp80
a(F363.570784490532
F48.18755635707845
F8.65644724977457
F5.770964833183047
tp81
a(F257.6735798016231
F25.969341749323714
F6.925157799819657
F3.1740306582506763
tp82
a(F167.06943192064924
F25.103697024346257
F4.616771866546438
F3.751127141568981
tp83
a(F210.92876465284039
F14.715960324616772
F9.233543733092876
F4.039675383228134
tp84
a(F337.8899909828674
F11.541929666366094
F8.944995491433724
F5.482416591523895
tp85
a(F6.6366095581605045
F11.253381424706943
F6.6366095581605045
F4.90532010820559
tp86
a(F322.59693417493236
F10.387736699729485
F9.522091974752028
F4.039675383228134
tp87
a(F358.0883678990081
F8.079350766456267
F5.770964833183047
F4.90532010820559
tp88
a(F68.96302975653742
F7.502254283137962
F8.079350766456267
F3.751127141568981
tp89
asS'transformInv'
p90
g35
(g36
(I0
tp91
g38
tp92
Rp93
(I1
(I3
I3
tp94
g45
I01
S'\xd4\x11\x8f?\xdbR\xd7\xbc\n-*9pn\xdd=\xaa\xbf\x8e?~\xca%9\xfc_\nC\x83\xb0\xa9B+\x02\x84?'
p95
tp96
bsS'aspectRatio'
p97
(I11
F8.5
tp98
s.