(dp0
S'docWidth'
p1
I479
sS'ocrResults'
p2
(dp3
sS'transform'
p4
cnumpy.core.multiarray
_reconstruct
p5
(cnumpy
ndarray
p6
(I0
tp7
S'b'
p8
tp9
Rp10
(I1
(I3
I3
tp11
cnumpy
dtype
p12
(S'f4'
p13
I0
I1
tp14
Rp15
(I3
S'<'
p16
NNNI-1
I-1
I0
tp17
bI00
S'\x10tw?\xea\x19#\xbdB\xeb\x08\xc2<.\x84;\x13qw?U\x16O\xc2\xd5\x8b_\xb8\xf2\xe8\xac\xb8\x00\x00\x80?'
p18
tp19
bsS'smallBoxes'
p20
(lp21
(F272.38954012623987
F346.25788999098285
F8.367899008115419
F3.4625788999098286
tp22
a(F10.676284941388637
F345.68079350766453
F11.541929666366094
F5.193868349864743
tp23
a(F369.05320108205586
F337.8899909828674
F17.88999098286745
F6.0595130748422
tp24
a(F342.50676284941386
F308.1695220919747
F28.566275924256086
F9.522091974752028
tp25
a(F257.6735798016231
F304.7069431920649
F31.163210099188458
F8.079350766456267
tp26
a(F93.48963029756537
F304.41839495040574
F24.815148782687103
F9.81064021641118
tp27
a(F415.22091974752027
F296.3390441839495
F42.70513976555455
F9.233543733092876
tp28
a(F52.22723174030658
F293.16501352569884
F36.645626690712355
F9.81064021641118
tp29
a(F391.84851217312894
F280.4688908926961
F33.183047790802526
F9.233543733092876
tp30
a(F272.678088367899
F275.8521190261497
F35.7799819657349
F9.522091974752028
tp31
a(F441.7673579801623
F274.9864743011722
F24.815148782687103
F11.830477908025248
tp32
a(F333.8503155996393
F270.36970243462576
F31.451758340847608
F6.6366095581605045
tp33
a(F195.92425608656447
F269.2155094679892
F19.909828674481513
F9.81064021641118
tp34
a(F250.74842200180342
F264.3101893597836
F22.79531109107304
F6.925157799819657
tp35
a(F210.92876465284039
F255.36519386834985
F25.39224526600541
F6.925157799819657
tp36
a(F86.56447249774571
F249.0171325518485
F22.79531109107304
F13.273219116321009
tp37
a(F270.36970243462576
F248.4400360685302
F37.222723174030655
F7.790802524797114
tp38
a(F128.11541929666365
F240.36068530207393
F30.009017132551847
F8.65644724977457
tp39
a(F172.5518485121731
F238.34084761045986
F28.566275924256086
F14.715960324616772
tp40
a(F240.93778178539225
F237.76375112714155
F29.431920649233543
F7.502254283137962
tp41
a(F199.67538322813346
F231.99278629395852
F32.02885482416591
F12.407574391343552
tp42
a(F297.4932371505861
F231.70423805229936
F28.854824165915236
F6.6366095581605045
tp43
a(F246.13165013525696
F221.31650135256987
F28.566275924256086
F6.6366095581605045
tp44
a(F57.13255184851217
F217.85392245266004
F32.02885482416591
F7.213706041478809
tp45
a(F313.94048692515776
F216.98827772768257
F32.60595130748422
F8.079350766456267
tp46
a(F208.9089269612263
F213.23715058611361
F35.49143372407574
F7.790802524797114
tp47
a(F143.1199278629396
F197.94409377817854
F28.566275924256086
F7.790802524797114
tp48
a(F175.7258791704238
F195.34715960324615
F38.08836789900811
F9.81064021641118
tp49
a(F235.1668169522092
F185.82506762849414
F30.297565374211
F8.367899008115419
tp50
a(F146.58250676284942
F181.49684400360684
F40.396753832281334
F6.6366095581605045
tp51
a(F56.844003606853015
F177.16862037871957
F30.297565374211
F8.079350766456267
tp52
a(F292.5879170423805
F174.86023444544634
F32.60595130748422
F8.079350766456267
tp53
a(F90.3155996393147
F150.62218214607753
F38.66546438232642
F17.02434625788999
tp54
a(F177.74571686203785
F148.89089269612262
F30.58611361587015
F7.213706041478809
tp55
a(F263.15599639314695
F148.02524797114518
F39.24256086564472
F8.079350766456267
tp56
a(F135.0405770964833
F134.75202885482415
F31.451758340847608
F6.6366095581605045
tp57
a(F283.06582506762845
F131.57799819657347
F26.546438232642018
F8.079350766456267
tp58
a(F241.22633002705138
F113.68800721370603
F31.451758340847608
F7.213706041478809
tp59
a(F279.02614968440037
F111.09107303877366
F32.31740306582507
F7.790802524797114
tp60
a(F172.5518485121731
F68.09738503155997
F32.89449954914337
F9.81064021641118
tp61
a(F281.9116321009919
F67.52028854824165
F32.02885482416591
F7.790802524797114
tp62
a(F219.87376014427412
F30.297565374211
F34.04869251577998
F8.65644724977457
tp63
a(F438.30477908025244
F17.88999098286745
F30.58611361587015
F6.348061316501353
tp64
a(F409.7385031559964
F17.601442741208295
F27.412082957619475
F11.541929666366094
tp65
asS'documentCorners'
p66
(lp67
(F37.61201858520508
F53.405479431152344
tp68
a(F517.3103637695312
F51.40353012084961
tp69
a(F517.428466796875
F410.6818542480469
tp70
a(F52.78600311279297
F421.7513122558594
tp71
asS'docHeight'
p72
I370
sS'transformInv'
p73
g5
(g6
(I0
tp74
g8
tp75
Rp76
(I1
(I3
I3
tp77
g15
I01
S'\xde\xa9\x84?a\xec\xb3\xbaW7g8\xd9\x1d<=\xbd\x01\x85?\x8b\xce\xb88\x19k\x17B\xe7\xffVBT\xd3\x80?'
p78
tp79
bsS'aspectRatio'
p80
(I11
F8.5
tp81
s.