(dp0
S'docWidth'
p1
I347
sS'ocrResults'
p2
(dp3
I0
S'Urethra'
p4
sI2
S'Bladder'
p5
sI3
S'Largointestine'
p6
sI4
S'Appendix'
p7
sI5
S'mtosbno'
p8
sI6
S'Ureter'
p9
sI7
S'Small'
p10
sI8
S'Pancreas'
p11
sI9
S'Kidney'
p12
sI10
S'Gallbladder'
p13
sI11
S'Stomach'
p14
sI12
S'Miiunuivena cava'
p15
sI13
S'Inferior'
p16
sI14
S'Spleen'
p17
sI15
S'Livor'
p18
sI16
S'Aorta'
p19
sI17
S'Lung'
p20
sI18
S'Diaphragm'
p21
sI19
VSuponorvena cava
p22
sI20
S'Esophagus'
p23
sI21
S'Trachoa'
p24
sI22
S'Heart'
p25
sI23
S'Thyroid'
p26
sI24
S'Aorta'
p27
ssS'transform'
p28
cnumpy.core.multiarray
_reconstruct
p29
(cnumpy
ndarray
p30
(I0
tp31
S'b'
p32
tp33
Rp34
(I1
(I3
I3
tp35
cnumpy
dtype
p36
(S'f4'
p37
I0
I1
tp38
Rp39
(I3
S'<'
p40
NNNI-1
I-1
I0
tp41
bI00
S'\x9f\x89r?\xd5\x9b\x04\xbdq\x9e\x1e\xc3\xee\xc3\x15\xbdg\xad\x81?\x9d\x13\x91\xc1\xb4\xe0\x94\xb9\xcc!\x109\x00\x00\x80?'
p42
tp43
bsS'smallBoxes'
p44
(lp45
(F34.91433724075744
F368.7646528403967
F31.74030658250676
F8.65644724977457
tp46
a(F249.88277727682595
F351.16321009918846
F33.471596032461676
F8.367899008115419
tp47
a(F34.04869251577998
F342.2182146077547
F32.60595130748422
F9.522091974752028
tp48
a(F282.77727682596935
F320.8656447249774
F34.62578899909828
F16.158701532912534
tp49
a(F23.660955816050496
F314.51758340847607
F38.66546438232642
F10.099188458070333
tp50
a(F283.06582506762845
F299.5130748422002
F34.62578899909828
F8.367899008115419
tp51
a(F48.18755635707845
F293.7421100090171
F27.12353471596032
F8.65644724977457
tp52
a(F283.06582506762845
F290.8566275924256
F25.103697024346257
F8.65644724977457
tp53
a(F263.15599639314695
F270.0811541929666
F39.24256086564472
F8.65644724977457
tp54
a(F23.08385933273219
F263.4445446348061
F66.0775473399459
F26.257889990982868
tp55
a(F29.14337240757439
F248.15148782687103
F46.456266907123535
F8.944995491433724
tp56
a(F241.8034265103697
F243.24616771866545
F58.57529305680793
F11.541929666366094
tp57
a(F25.969341749323714
F230.2614968440036
F59.44093778178539
F12.984670874661857
tp58
a(F26.257889990982868
F225.9332732191163
F29.431920649233543
F8.367899008115419
tp59
a(F264.0216411181244
F222.47069431920647
F29.720468890892693
F9.522091974752028
tp60
a(F40.973850315599634
F204.8692515779982
F22.21821460775473
F7.790802524797114
tp61
a(F283.64292155094677
F199.3868349864743
F23.372407574391342
F7.790802524797114
tp62
a(F40.973850315599634
F180.6311992786294
F23.08385933273219
F10.387736699729485
tp63
a(F265.17583408476105
F174.28313796212802
F44.72497745716862
F10.387736699729485
tp64
a(F26.546438232642018
F150.62218214607753
F41.83949504057709
F17.02434625788999
tp65
a(F284.2200180342651
F149.7565374211001
F44.72497745716862
F9.81064021641118
tp66
a(F6.0595130748422
F127.53832281334535
F34.04869251577998
F8.944995491433724
tp67
a(F279.02614968440037
F125.80703336339043
F23.949504057709646
F8.944995491433724
tp68
a(F27.12353471596032
F103.5888187556357
F32.02885482416591
F10.96483318304779
tp69
a(F279.02614968440037
F103.30027051397656
F23.660955816050496
F7.790802524797114
tp70
asS'documentCorners'
p71
(lp72
(F168.24246215820312
F23.972026824951172
tp73
a(F486.1211242675781
F35.444541931152344
tp74
a(F517.2117309570312
F441.56787109375
tp75
a(F183.60227966308594
F473.45477294921875
tp76
asS'docHeight'
p77
I449
sS'transformInv'
p78
g29
(g30
(I0
tp79
g32
tp80
Rp81
(I1
(I3
I3
tp82
g39
I01
S'\xb8\xea\x8d?r\x86:=e\xc8\xa19A\x19=<\x990|?\xdd\x8c\n\xb9\xfb\x120C\x0f\xb4\xc8AY\xf5\x85?'
p83
tp84
bsS'aspectRatio'
p85
(F8.5
I11
tp86
s.