(dp0
S'docWidth'
p1
I347
sS'ocrResults'
p2
(dp3
I0
S'Urethra'
p4
sI1
S'Roctum'
p5
sI2
S'Bladder'
p6
sI3
S'Largointestine'
p7
sI4
S'Appendix'
p8
sI5
S'mtosbno'
p9
sI6
S'Ureter'
p10
sI7
S'Small'
p11
sI8
S'Pancreas'
p12
sI9
S'Kidney'
p13
sI10
S'Gallbladder'
p14
sI11
S'Stomach'
p15
sI12
S'Miiunuivena cava'
p16
sI13
S'Inferior'
p17
sI14
S'Spleen'
p18
sI15
S'Livor'
p19
sI16
S'Aorta'
p20
sI17
S'Lung'
p21
sI18
S'Diaphragm'
p22
sI19
VSuponorvena cava
p23
sI20
S'Esophagus'
p24
sI21
S'Trachoa'
p25
sI22
S'Heart'
p26
sI23
S'Thyroid'
p27
sI24
S'Aorta'
p28
ssS'transform'
p29
cnumpy.core.multiarray
_reconstruct
p30
(cnumpy
ndarray
p31
(I0
tp32
S'b'
p33
tp34
Rp35
(I1
(I3
I3
tp36
cnumpy
dtype
p37
(S'f4'
p38
I0
I1
tp39
Rp40
(I3
S'<'
p41
NNNI-1
I-1
I0
tp42
bI00
S'\x9f\x89r?\xd5\x9b\x04\xbdq\x9e\x1e\xc3\xee\xc3\x15\xbdg\xad\x81?\x9d\x13\x91\xc1\xb4\xe0\x94\xb9\xcc!\x109\x00\x00\x80?'
p43
tp44
bsS'docHeight'
p45
I449
sS'documentCorners'
p46
(lp47
(F168.24246215820312
F23.972026824951172
tp48
a(F486.1211242675781
F35.444541931152344
tp49
a(F517.2117309570312
F441.56787109375
tp50
a(F183.60227966308594
F473.45477294921875
tp51
asS'smallBoxes'
p52
(lp53
(F34.91433724075744
F368.7646528403967
F31.74030658250676
F8.65644724977457
tp54
a(F249.88277727682595
F351.16321009918846
F33.471596032461676
F8.367899008115419
tp55
a(F34.04869251577998
F342.2182146077547
F32.60595130748422
F9.522091974752028
tp56
a(F282.77727682596935
F320.8656447249774
F34.62578899909828
F16.158701532912534
tp57
a(F23.660955816050496
F314.51758340847607
F38.66546438232642
F10.099188458070333
tp58
a(F283.06582506762845
F299.5130748422002
F34.62578899909828
F8.367899008115419
tp59
a(F48.18755635707845
F293.7421100090171
F27.12353471596032
F8.65644724977457
tp60
a(F283.06582506762845
F290.8566275924256
F25.103697024346257
F8.65644724977457
tp61
a(F263.15599639314695
F270.0811541929666
F39.24256086564472
F8.65644724977457
tp62
a(F23.08385933273219
F263.4445446348061
F66.0775473399459
F26.257889990982868
tp63
a(F29.14337240757439
F248.15148782687103
F46.456266907123535
F8.944995491433724
tp64
a(F241.8034265103697
F243.24616771866545
F58.57529305680793
F11.541929666366094
tp65
a(F25.969341749323714
F230.2614968440036
F59.44093778178539
F12.984670874661857
tp66
a(F26.257889990982868
F225.9332732191163
F29.431920649233543
F8.367899008115419
tp67
a(F264.0216411181244
F222.47069431920647
F29.720468890892693
F9.522091974752028
tp68
a(F40.973850315599634
F204.8692515779982
F22.21821460775473
F7.790802524797114
tp69
a(F283.64292155094677
F199.3868349864743
F23.372407574391342
F7.790802524797114
tp70
a(F40.973850315599634
F180.6311992786294
F23.08385933273219
F10.387736699729485
tp71
a(F265.17583408476105
F174.28313796212802
F44.72497745716862
F10.387736699729485
tp72
a(F26.546438232642018
F150.62218214607753
F41.83949504057709
F17.02434625788999
tp73
a(F284.2200180342651
F149.7565374211001
F44.72497745716862
F9.81064021641118
tp74
a(F6.0595130748422
F127.53832281334535
F34.04869251577998
F8.944995491433724
tp75
a(F279.02614968440037
F125.80703336339043
F23.949504057709646
F8.944995491433724
tp76
a(F27.12353471596032
F103.5888187556357
F32.02885482416591
F10.96483318304779
tp77
a(F279.02614968440037
F103.30027051397656
F23.660955816050496
F7.790802524797114
tp78
asS'transformInv'
p79
g30
(g31
(I0
tp80
g33
tp81
Rp82
(I1
(I3
I3
tp83
g40
I01
S'\xb8\xea\x8d?r\x86:=e\xc8\xa19A\x19=<\x990|?\xdd\x8c\n\xb9\xfb\x120C\x0f\xb4\xc8AY\xf5\x85?'
p84
tp85
bsS'aspectRatio'
p86
(F8.5
I11
tp87
s.