(dp0
S'docWidth'
p1
I488
sS'ocrResults'
p2
(dp3
I0
S'will'
p4
sI1
S'Una'
p5
sI2
S'Turkey'
p6
sI3
S'Spain'
p7
sI4
S'Azerbaijan'
p8
sI5
S'Portugal'
p9
sI6
S'Ge'
p10
sI7
S'Georgia'
p11
sI8
S'ha'
p12
sI9
S'Bulgaria'
p13
sI10
S'll'
p14
sI11
S'cut'
p15
sI12
S'Romania'
p16
sI13
S'Franco'
p17
sI14
S'Ukraine'
p18
sI15
S'Belgium'
p19
sI16
S'Germany'
p20
sI17
S'Poland'
p21
sI18
S'Ireland'
p22
sI19
S'B'
p23
sI20
S'Estonia'
p24
sI21
S'NW2'
p25
sI22
S'Finland'
p26
sI23
S'Sweden'
p27
sI24
S'MID'
p28
sI25
S'Satellite'
p29
ssS'transform'
p30
cnumpy.core.multiarray
_reconstruct
p31
(cnumpy
ndarray
p32
(I0
tp33
S'b'
p34
tp35
Rp36
(I1
(I3
I3
tp37
cnumpy
dtype
p38
(S'f4'
p39
I0
I1
tp40
Rp41
(I3
S'<'
p42
NNNI-1
I-1
I0
tp43
bI00
S'\x91\xb7t?\x1f\x95\x10\xbd\x1a\x1e\x94\xc2M\x85\xad\xbb~rq?\xeb\\Q\xc2\x15.\x85\xb8\x9d]\x00\xb9\x00\x00\x80?'
p44
tp45
bsS'docHeight'
p46
I377
sS'documentCorners'
p47
(lp48
(F79.53907012939453
F55.942054748535156
tp49
a(F568.0565795898438
F58.68488693237305
tp50
a(F559.0228881835938
F423.4458312988281
tp51
a(F93.43352508544922
F432.2210693359375
tp52
asS'smallBoxes'
p53
(lp54
(F411.1812443642921
F350.00901713255183
F13.850315599639314
F3.751127141568981
tp55
a(F452.7321911632101
F332.1190261496844
F8.079350766456267
F4.039675383228134
tp56
a(F348.8548241659152
F312.7862939585212
F30.874661857529304
F12.696122633002705
tp57
a(F92.91253381424707
F308.1695220919747
F25.68079350766456
F10.676284941388637
tp58
a(F423.30027051397656
F300.3787195671776
F43.570784490532006
F9.522091974752028
tp59
a(F50.78449053201082
F297.4932371505861
F37.222723174030655
F9.522091974752028
tp60
a(F440.0360685302074
F294.03065825067625
F8.079350766456267
F4.328223624887285
tp61
a(F398.7736699729486
F282.4887285843102
F37.222723174030655
F11.253381424706943
tp62
a(F122.05590622182146
F282.20018034265104
F6.348061316501353
F3.751127141568981
tp63
a(F277.00631199278627
F279.3146979260595
F36.06853020739405
F9.522091974752028
tp64
a(F198.52119026149683
F272.678088367899
F21.92966636609558
F12.407574391343552
tp65
a(F254.4995491433724
F267.7727682596934
F22.506762849413885
F6.348061316501353
tp66
a(F274.69792605951307
F251.3255184851217
F37.51127141568981
F8.65644724977457
tp67
a(F128.98106402164112
F243.5347159603246
F30.297565374211
F9.233543733092876
tp68
a(F318.84580703336337
F219.58521190261496
F32.89449954914337
F8.079350766456267
tp69
a(F144.2741208295762
F200.25247971145174
F28.854824165915236
F7.790802524797114
tp70
a(F177.74571686203785
F198.23264201983767
F38.37691614066726
F8.944995491433724
tp71
a(F238.34084761045986
F188.13345356176734
F30.58611361587015
F8.079350766456267
tp72
a(F56.555455365193865
F178.61136158701532
F30.58611361587015
F8.079350766456267
tp73
a(F19.909828674481513
F177.16862037871957
F15.87015329125338
F10.387736699729485
tp74
a(F283.64292155094677
F112.24526600541027
F31.74030658250676
F7.502254283137962
tp75
a(F172.26330027051398
F68.67448151487827
F34.62578899909828
F10.96483318304779
tp76
a(F286.5284039675383
F67.80883678990081
F32.31740306582507
F7.790802524797114
tp77
a(F223.0477908025248
F30.58611361587015
F33.471596032461676
F7.502254283137962
tp78
a(F420.70333633904414
F17.601442741208295
F18.467087466185752
F7.502254283137962
tp79
a(F446.38412984670873
F17.02434625788999
F31.163210099188458
F8.079350766456267
tp80
asS'transformInv'
p81
g31
(g32
(I0
tp82
g34
tp83
Rp84
(I1
(I3
I3
tp85
g41
I01
S'\x14\x9f\x86?\xbe\x8d\x1e<\xc9\x8d\x8e8\xf2\x05L=\xb2\xb3\x88?\xcbh\x0c9o\xfe\xa0B\x89vbB\x9e\x8a\x81?'
p86
tp87
bsS'aspectRatio'
p88
(I11
F8.5
tp89
s.