(dp0
S'docWidth'
p1
I421
sS'ocrResults'
p2
(dp3
I0
S'GALLUP'
p4
sI1
S'Gallup, July 9-12,2012'
p5
sI2
S'42'
p6
sI3
S'45'
p7
sI4
S'3'
p8
sI5
S'10'
p9
sI6
S'Republicans'
p10
sI7
S'24'
p11
sI8
S'15'
p12
sI9
S'33'
p13
sI10
S'2H'
p14
sI11
S'Independents'
p15
sI12
S'33'
p16
sI13
S'16'
p17
sI14
S'46'
p18
sI15
S'Democrats'
p19
sI16
S'10'
p20
sI17
S'39'
p21
sI18
S'34'
p22
sI19
S'IH'
p23
sI20
S'All Americans'
p24
sI21
S'all'
p25
sI22
S'clo*el>'
p26
sI23
S'cioM-ly'
p27
sI24
S'% Not I CM)'
p28
sI25
V% Veryclosely
p29
sI26
S'% Somewhat'
p30
sI27
S'% Nut at'
p31
sI28
S'How closely are you following the news ulxnit the 2012 presidential election campaign - very closely, somewhat closely, not too closely, or not at all?'
p32
ssS'transform'
p33
cnumpy.core.multiarray
_reconstruct
p34
(cnumpy
ndarray
p35
(I0
tp36
S'b'
p37
tp38
Rp39
(I1
(I3
I3
tp40
cnumpy
dtype
p41
(S'f4'
p42
I0
I1
tp43
Rp44
(I3
S'<'
p45
NNNI-1
I-1
I0
tp46
bI00
S"\xa7&^?\xb7\x0f\xf3\xbc\x0f\xb4\xe3\xc2`\n\x8b\xbc'\xe5g?\x19\xdf\x02\xc2k\x18\x89\xb9j@48\x00\x00\x80?"
p47
tp48
bsS'smallBoxes'
p49
(lp50
(F40.685302073940484
F238.62939585211902
F42.70513976555455
F10.099188458070333
tp51
a(F42.70513976555455
F216.12263300270513
F88.29576194770063
F11.253381424706943
tp52
a(F221.02795311091072
F196.21280432822363
F13.56176735798016
F8.944995491433724
tp53
a(F161.58701532912534
F195.92425608656447
F12.984670874661857
F9.522091974752028
tp54
a(F347.9891794409378
F195.6357078449053
F9.233543733092876
F8.65644724977457
tp55
a(F288.83678990081154
F195.6357078449053
F11.830477908025248
F8.367899008115419
tp56
a(F42.993688007213706
F195.058611361587
F49.34174932371506
F11.253381424706943
tp57
a(F287.97114517583407
F182.07394048692515
F12.696122633002705
F8.944995491433724
tp58
a(F347.1235347159603
F181.785392245266
F11.830477908025248
F9.233543733092876
tp59
a(F221.02795311091072
F181.785392245266
F13.56176735798016
F9.522091974752028
tp60
a(F161.29846708746618
F181.20829576194768
F13.273219116321009
F8.944995491433724
tp61
a(F42.993688007213706
F180.91974752028855
F54.82416591523895
F13.273219116321009
tp62
a(F160.72137060414786
F168.512173128945
F13.56176735798016
F8.65644724977457
tp63
a(F288.83678990081154
F167.06943192064924
F11.541929666366094
F8.367899008115419
tp64
a(F220.73940486925156
F166.78088367899008
F13.56176735798016
F10.387736699729485
tp65
a(F41.26239855725879
F164.761045987376
F43.282236248872856
F11.541929666366094
tp66
a(F346.25788999098285
F140.23444544634805
F12.1190261496844
F7.790802524797114
tp67
a(F221.02795311091072
F140.23444544634805
F13.56176735798016
F11.830477908025248
tp68
a(F160.72137060414786
F139.9458972046889
F13.273219116321009
F9.81064021641118
tp69
a(F288.2596934174932
F139.3688007213706
F12.1190261496844
F8.944995491433724
tp70
a(F40.973850315599634
F139.3688007213706
F57.99819657348963
F9.522091974752028
tp71
a(F344.52660054102796
F126.38412984670875
F14.138863841298466
F8.944995491433724
tp72
a(F277.87195671776374
F126.38412984670875
F32.60595130748422
F10.96483318304779
tp73
a(F211.5058611361587
F126.09558160504959
F32.60595130748422
F11.253381424706943
tp74
a(F271.81244364292155
F115.7078449053201
F44.14788097385031
F9.81064021641118
tp75
a(F150.9107303877367
F115.7078449053201
F33.183047790802526
F21.352569882777274
tp76
a(F199.09828674481514
F115.41929666366094
F56.844003606853015
F9.81064021641118
tp77
a(F332.6961226330027
F115.1307484220018
F37.51127141568981
F9.81064021641118
tp78
a(F42.12804328223625
F80.21641118124435
I323
I26
tp79
asS'documentCorners'
p80
(lp81
(F132.51904296875
F38.601810455322266
tp82
a(F549.2260131835938
F46.409645080566406
tp83
a(F564.4475708007812
F358.0431823730469
tp84
a(F144.5360565185547
F390.06414794921875
tp85
asS'docHeight'
p86
I325
sS'transformInv'
p87
g34
(g35
(I0
tp88
g37
tp89
Rp90
(I1
(I3
I3
tp91
g44
I01
S'\xe3\xde\x98?\xa5\xa5\t=\xe3\xf9\xa29\xf5\x99\x05=(4\x8d?V\x12#\xb8\\\n\tC\xeb\xac\x1fB\x03^\x84?'
p92
tp93
bsS'aspectRatio'
p94
(I11
F8.5
tp95
s.