(dp0
S'docWidth'
p1
I355
sS'ocrResults'
p2
(dp3
I0
S'Lake Shore'
p4
sI1
S'Marley'
p5
sI2
S'Severn'
p6
sI3
S'zhili'
p7
sI4
S'Beach'
p8
sI5
S'I Glen Burnie'
p9
sI6
S'Riviera'
p10
sI7
S'Dorsey'
p11
sI8
S'Howard'
p12
sI9
S'I F911'
p13
sI10
S'Highlands'
p14
sI11
S'Baltimore'
p15
sI12
S'Lansdown'
p16
sI13
S'Edgemcre'
p17
sI14
S'Dundalk'
p18
sI15
S'Point'
p19
sI16
S'M'
p20
sI17
S'A'
p21
sI18
S'Turkey'
p22
sI19
S'Park'
p23
sI20
S'I Essex'
p24
sI21
S'Roscdale'
p25
sI22
S'Forest'
p26
sI23
S'Kcnwood'
p27
sI24
S'Lochearn'
p28
sI25
S'Overlca I'
p29
sI26
S'I White Marsh'
p30
sI27
S'Parkvlllc'
p31
sI28
S'in'
p32
ssS'transform'
p33
cnumpy.core.multiarray
_reconstruct
p34
(cnumpy
ndarray
p35
(I0
tp36
S'b'
p37
tp38
Rp39
(I1
(I3
I3
tp40
cnumpy
dtype
p41
(S'f4'
p42
I0
I1
tp43
Rp44
(I3
S'<'
p45
NNNI-1
I-1
I0
tp46
bI00
S"\xea\xbdg?\xeb\x8a\x00\xbd*\xf7\x0f\xc3\x88\n\xca\xbb\xbbLh??\xf0'\xc2\xde\x0e7\xb9\xc3Z\x8a\xb8\x00\x00\x80?"
p47
tp48
bsS'docHeight'
p49
I274
sS'documentCorners'
p50
(lp51
(F160.67727661132812
F47.35985565185547
tp52
a(F516.2874145507812
F49.776180267333984
tp53
a(F518.49609375
F318.0772705078125
tp54
a(F170.60537719726562
F333.74029541015625
tp55
asS'smallBoxes'
p56
(lp57
(F202.2723174030658
F247.2858431018936
F53.66997294860234
F10.387736699729485
tp58
a(F102.14607754733994
F237.76375112714155
F36.06853020739405
F12.696122633002705
tp59
a(F25.103697024346257
F231.70423805229936
F34.91433724075744
F10.387736699729485
tp60
a(F256.2308385933273
F213.52569882777277
F23.949504057709646
F11.541929666366094
tp61
a(F193.61587015329124
F210.64021641118123
F38.37691614066726
F12.407574391343552
tp62
a(F118.01623083859332
F202.84941388638413
F66.6546438232642
F10.676284941388637
tp63
a(F201.1181244364292
F200.5410279531109
F36.3570784490532
F9.522091974752028
tp64
a(F42.4165915238954
F194.19296663660955
F36.645626690712355
F12.407574391343552
tp65
a(F244.40036068530208
F190.73038773669973
F38.66546438232642
F10.099188458070333
tp66
a(F237.47520288548242
F178.034265103697
F29.720468890892693
F9.81064021641118
tp67
a(F123.21009918845806
F174.28313796212802
F51.07303877366997
F12.696122633002705
tp68
a(F123.49864743011722
F161.29846708746618
F48.76465284039675
F10.099188458070333
tp69
a(F40.10820559062218
F147.73669972948602
F50.495942290351664
F10.387736699729485
tp70
a(F246.99729486023443
F141.6771866546438
F47.61045987376014
F12.407574391343552
tp71
a(F162.74120829576194
F133.59783588818755
F40.10820559062218
F9.522091974752028
tp72
a(F264.8872858431019
F107.05139765554553
F27.412082957619475
F9.522091974752028
tp73
a(F150.33363390441838
F106.76284941388639
F31.74030658250676
F16.158701532912534
tp74
a(F94.35527502254283
F106.47430117222723
F32.89449954914337
F16.158701532912534
tp75
a(F264.3101893597836
F93.77817853922453
F35.20288548241659
F12.407574391343552
tp76
a(F91.75834084761046
F81.65915238954013
F23.949504057709646
F9.81064021641118
tp77
a(F210.64021641118123
F78.7736699729486
F35.49143372407574
F9.81064021641118
tp78
a(F144.8512173128945
F70.98286744815148
F50.78449053201082
F10.387736699729485
tp79
a(F91.75834084761046
F68.96302975653742
F31.163210099188458
F9.522091974752028
tp80
a(F207.46618575293056
F56.266907123534715
F46.16771866546438
F10.387736699729485
tp81
a(F47.033363390441835
F51.93868349864743
F46.456266907123535
F10.387736699729485
tp82
a(F143.98557258791703
F42.4165915238954
F47.033363390441835
F10.099188458070333
tp83
a(F239.20649233543733
F33.471596032461676
F69.25157799819657
F10.676284941388637
tp84
a(F174.86023444544634
F20.77547339945897
F43.570784490532006
F10.387736699729485
tp85
a(F327.502254283138
F0.5770964833183048
F18.467087466185752
F3.1740306582506763
tp86
asS'transformInv'
p87
g34
(g35
(I0
tp88
g37
tp89
Rp90
(I1
(I3
I3
tp91
g44
I01
S'\x98\x89\x91??\xf3\x8a<\x00PQ9?tR=\xd2\x96\x8d?\xaa\xda\xab8\xfc\xd8%C\x07\x89CBk\x1e\x84?'
p92
tp93
bsS'aspectRatio'
p94
(I11
F8.5
tp95
s.