(dp0
S'docWidth'
p1
I479
sS'ocrResults'
p2
(dp3
I0
S'an'
p4
sI1
S'J11'
p5
sI2
S'Svna'
p6
sI3
S'Turkey'
p7
sI4
S'Gruco'
p8
sI5
S'Spain'
p9
sI6
S'Azerbaijan'
p10
sI7
S'Portugal'
p11
sI8
S'Georgia'
p12
sI9
S'Bulgaria'
p13
sI10
S'CIWIII1\nSn'
p14
sI11
S'Buck Sn'
p15
sI12
S'uly'
p16
sI13
S'Snbu'
p17
sI14
S'CIOIIII'
p18
sI15
S'Bay of\nBlscay'
p19
sI16
S'Romania'
p20
sI17
S'France'
p21
sI18
S'my\nEm\nan'
p22
sI19
S'Hunqlw'
p23
sI20
S'4 Anflml'
p24
sI21
S'Moldova'
p25
sI22
S'Slovnlua'
p26
sI23
S'Ctmc Sn'
p27
sI24
S'Ukralnc'
p28
sI25
S'Cneh Rap'
p29
sI26
S'Btlqmm'
p30
sI27
S'Germany'
p31
sI28
S'Poland'
p32
sI29
S'Nnmnia ndl'
p33
sI30
S'lrellnd'
p34
sI31
S'Belarus'
p35
sI32
S'Unitod\nKingdom'
p36
sI33
S'Dtnmut'
p37
sI34
S'Lllhulnll'
p38
sI35
S'Mwmsn'
p39
sI36
S'Latvia'
p40
sI37
S'Bllrt Sn'
p41
sI38
S'Eltonll'
p42
sI39
S'Norway'
p43
sI40
S'Finland'
p44
sI41
S'Swodon'
p45
sI42
S'Sataime'
p46
sI43
S'Lian'
p47
ssS'transform'
p48
cnumpy.core.multiarray
_reconstruct
p49
(cnumpy
ndarray
p50
(I0
tp51
S'b'
p52
tp53
Rp54
(I1
(I3
I3
tp55
cnumpy
dtype
p56
(S'f4'
p57
I0
I1
tp58
Rp59
(I3
S'<'
p60
NNNI-1
I-1
I0
tp61
bI00
S'\x10tw?\xea\x19#\xbdB\xeb\x08\xc2<.\x84;\x13qw?U\x16O\xc2\xd5\x8b_\xb8\xf2\xe8\xac\xb8\x00\x00\x80?'
p62
tp63
bsS'docHeight'
p64
I370
sS'documentCorners'
p65
(lp66
(F37.61201858520508
F53.405479431152344
tp67
a(F517.3103637695312
F51.40353012084961
tp68
a(F517.428466796875
F410.6818542480469
tp69
a(F52.78600311279297
F421.7513122558594
tp70
asS'smallBoxes'
p71
(lp72
(F272.38954012623987
F346.25788999098285
F8.367899008115419
F3.4625788999098286
tp73
a(F10.676284941388637
F345.68079350766453
F11.541929666366094
F5.193868349864743
tp74
a(F369.05320108205586
F337.8899909828674
F17.88999098286745
F6.0595130748422
tp75
a(F342.50676284941386
F308.1695220919747
F28.566275924256086
F9.522091974752028
tp76
a(F257.6735798016231
F304.7069431920649
F31.163210099188458
F8.079350766456267
tp77
a(F93.48963029756537
F304.41839495040574
F24.815148782687103
F9.81064021641118
tp78
a(F415.22091974752027
F296.3390441839495
F42.70513976555455
F9.233543733092876
tp79
a(F52.22723174030658
F293.16501352569884
F36.645626690712355
F9.81064021641118
tp80
a(F391.84851217312894
F280.4688908926961
F33.183047790802526
F9.233543733092876
tp81
a(F272.678088367899
F275.8521190261497
F35.7799819657349
F9.522091974752028
tp82
a(F441.7673579801623
F274.9864743011722
F24.815148782687103
F11.830477908025248
tp83
a(F333.8503155996393
F270.36970243462576
F31.451758340847608
F6.6366095581605045
tp84
a(F195.92425608656447
F269.2155094679892
F19.909828674481513
F9.81064021641118
tp85
a(F250.74842200180342
F264.3101893597836
F22.79531109107304
F6.925157799819657
tp86
a(F210.92876465284039
F255.36519386834985
F25.39224526600541
F6.925157799819657
tp87
a(F86.56447249774571
F249.0171325518485
F22.79531109107304
F13.273219116321009
tp88
a(F270.36970243462576
F248.4400360685302
F37.222723174030655
F7.790802524797114
tp89
a(F128.11541929666365
F240.36068530207393
F30.009017132551847
F8.65644724977457
tp90
a(F172.5518485121731
F238.34084761045986
F28.566275924256086
F14.715960324616772
tp91
a(F240.93778178539225
F237.76375112714155
F29.431920649233543
F7.502254283137962
tp92
a(F199.67538322813346
F231.99278629395852
F32.02885482416591
F12.407574391343552
tp93
a(F297.4932371505861
F231.70423805229936
F28.854824165915236
F6.6366095581605045
tp94
a(F246.13165013525696
F221.31650135256987
F28.566275924256086
F6.6366095581605045
tp95
a(F57.13255184851217
F217.85392245266004
F32.02885482416591
F7.213706041478809
tp96
a(F313.94048692515776
F216.98827772768257
F32.60595130748422
F8.079350766456267
tp97
a(F208.9089269612263
F213.23715058611361
F35.49143372407574
F7.790802524797114
tp98
a(F143.1199278629396
F197.94409377817854
F28.566275924256086
F7.790802524797114
tp99
a(F175.7258791704238
F195.34715960324615
F38.08836789900811
F9.81064021641118
tp100
a(F235.1668169522092
F185.82506762849414
F30.297565374211
F8.367899008115419
tp101
a(F146.58250676284942
F181.49684400360684
F40.396753832281334
F6.6366095581605045
tp102
a(F56.844003606853015
F177.16862037871957
F30.297565374211
F8.079350766456267
tp103
a(F292.5879170423805
F174.86023444544634
F32.60595130748422
F8.079350766456267
tp104
a(F90.3155996393147
F150.62218214607753
F38.66546438232642
F17.02434625788999
tp105
a(F177.74571686203785
F148.89089269612262
F30.58611361587015
F7.213706041478809
tp106
a(F263.15599639314695
F148.02524797114518
F39.24256086564472
F8.079350766456267
tp107
a(F135.0405770964833
F134.75202885482415
F31.451758340847608
F6.6366095581605045
tp108
a(F283.06582506762845
F131.57799819657347
F26.546438232642018
F8.079350766456267
tp109
a(F241.22633002705138
F113.68800721370603
F31.451758340847608
F7.213706041478809
tp110
a(F279.02614968440037
F111.09107303877366
F32.31740306582507
F7.790802524797114
tp111
a(F172.5518485121731
F68.09738503155997
F32.89449954914337
F9.81064021641118
tp112
a(F281.9116321009919
F67.52028854824165
F32.02885482416591
F7.790802524797114
tp113
a(F219.87376014427412
F30.297565374211
F34.04869251577998
F8.65644724977457
tp114
a(F438.30477908025244
F17.88999098286745
F30.58611361587015
F6.348061316501353
tp115
a(F409.7385031559964
F17.601442741208295
F27.412082957619475
F11.541929666366094
tp116
asS'transformInv'
p117
g49
(g50
(I0
tp118
g52
tp119
Rp120
(I1
(I3
I3
tp121
g59
I01
S'\xde\xa9\x84?a\xec\xb3\xbaW7g8\xd9\x1d<=\xbd\x01\x85?\x8b\xce\xb88\x19k\x17B\xe7\xffVBT\xd3\x80?'
p122
tp123
bsS'aspectRatio'
p124
(I11
F8.5
tp125
s.