(dp0
S'docWidth'
p1
I332
sS'ocrResults'
p2
(dp3
I0
S''
p4
sI1
g4
sI2
g4
sI3
g4
sI4
g4
sI5
g4
sI6
g4
sI7
g4
sI8
g4
sI9
g4
sI10
g4
sI11
g4
sI12
g4
sI13
g4
sI14
g4
sI15
g4
sI16
g4
sI17
g4
sI18
g4
sI19
g4
sI20
g4
sI21
g4
sI22
g4
sI23
g4
sI24
g4
sI25
g4
sI26
g4
sI27
g4
sI28
g4
sI29
g4
sI30
g4
sI31
g4
sI32
g4
sI33
g4
sI34
g4
sI35
S'4'
p5
sI36
g4
sI37
g4
sI38
g4
sI39
g4
sI40
g4
sI41
g4
sI42
g4
sI43
g4
sI44
g4
sI45
g4
sI46
S'i'
p6
sI47
g4
sI48
g4
sI49
g4
sI50
g4
sI51
g4
sI52
g4
sI53
g4
sI54
S'Amount of time that passes\nbetween house cleanings'
p7
sI55
S'Tnlrben percent ol\nntpondnnb said\ntheir homes go Ive or\nmore weeks between\ndeaningsn Three\nweeks ls the average\nlength ol time'
p8
sI56
g4
sI57
g4
sI58
g4
sI59
g4
sI60
g4
sI61
S'Amount of time that passes\nbetween house cleanings\nLess than I Week\n1 week I396 2 k\nwee s\n24896 2756\nweeks\nor more 3 week\n2296 I096'
p9
sI62
g4
sI63
g4
sI64
g4
sI65
g4
sI66
g4
sI67
g4
sI68
g4
sI69
g4
sI70
g4
sI71
g4
sI72
g4
sI73
g4
sI74
g4
sI75
g4
sI76
g4
sI77
g4
sI78
g4
sI79
g4
ssS'transform'
p10
cnumpy.core.multiarray
_reconstruct
p11
(cnumpy
ndarray
p12
(I0
tp13
S'b'
p14
tp15
Rp16
(I1
(I3
I3
tp17
cnumpy
dtype
p18
(S'f4'
p19
I0
I1
tp20
Rp21
(I3
S'<'
p22
NNNI-1
I-1
I0
tp23
bI00
S'\x83R~?Eyv\xbc\x92\xb1\xc4\xc2<5x<hc\x82?\xc9O8\xc3c\x8b\xf5\xb8\xc0\xe2\xe08\x00\x00\x80?'
p24
tp25
bsS'docHeight'
p26
I256
sS'documentCorners'
p27
(lp28
(F101.7125473022461
F179.42298889160156
tp29
a(F425.44024658203125
F174.60853576660156
tp30
a(F437.6896667480469
F424.29266357421875
tp31
a(F105.64945220947266
F439.40826416015625
tp32
asS'smallBoxes'
p33
(lp34
(F290.5680793507664
F255.36519386834985
F3.1740306582506763
F0.8656447249774571
tp35
a(F249.30568079350766
F255.36519386834985
F3.751127141568981
F0.8656447249774571
tp36
a(F283.06582506762845
F255.0766456266907
F5.482416591523895
F1.1541929666366095
tp37
a(F276.42921550946795
F255.0766456266907
F3.1740306582506763
F1.1541929666366095
tp38
a(F233.72407574391343
F255.0766456266907
F5.770964833183047
F1.1541929666366095
tp39
a(F220.4508566275924
F255.0766456266907
F6.0595130748422
F1.1541929666366095
tp40
a(F197.94409377817854
F255.0766456266907
F9.522091974752028
F1.1541929666366095
tp41
a(F183.80522993688007
F255.0766456266907
F8.65644724977457
F1.1541929666366095
tp42
a(F180.6311992786294
F255.0766456266907
F2.5969341749323713
F1.1541929666366095
tp43
a(F170.8205590622182
F255.0766456266907
F3.751127141568981
F1.1541929666366095
tp44
a(F163.89540126239854
F255.0766456266907
F4.328223624887285
F1.1541929666366095
tp45
a(F160.72137060414786
F255.0766456266907
F2.5969341749323713
F1.1541929666366095
tp46
a(F150.62218214607753
F255.0766456266907
F2.308385933273219
F1.1541929666366095
tp47
a(F146.29395852119026
F255.0766456266907
F3.751127141568981
F1.1541929666366095
tp48
a(F115.99639314697926
F255.0766456266907
F9.233543733092876
F1.1541929666366095
tp49
a(F23.660955816050496
F255.0766456266907
F3.1740306582506763
F1.1541929666366095
tp50
a(F141.10009017132552
F254.78809738503153
F2.5969341749323713
F1.4427412082957618
tp51
a(F89.73850315599638
F254.78809738503153
F3.1740306582506763
F1.4427412082957618
tp52
a(F74.15689810640217
F254.78809738503153
F6.6366095581605045
F1.4427412082957618
tp53
a(F61.46077547339946
F254.78809738503153
F7.502254283137962
F1.4427412082957618
tp54
a(F57.42110009017132
F254.78809738503153
F3.4625788999098286
F1.4427412082957618
tp55
a(F47.89900811541929
F254.78809738503153
F4.039675383228134
F1.4427412082957618
tp56
a(F0.2885482416591524
F239.78358881875562
F2.8854824165915236
F16.447249774571684
tp57
a(F0.2885482416591524
F191.59603246167717
F2.5969341749323713
F46.744815148782685
tp58
a(F0.2885482416591524
F187.2678088367899
F2.019837691614067
F3.751127141568981
tp59
a(F329.522091974752
F186.97926059513074
F2.019837691614067
F5.770964833183047
tp60
a(F329.522091974752
F182.3624887285843
F2.019837691614067
F2.8854824165915236
tp61
a(F280.75743913435525
F179.47700631199277
F7.502254283137962
F2.5969341749323713
tp62
a(F126.67267808836789
F179.18845807033364
F3.1740306582506763
F2.308385933273219
tp63
a(F120.90171325518484
F179.18845807033364
F2.308385933273219
F2.308385933273219
tp64
a(F134.46348061316502
F178.89990982867448
F4.90532010820559
F2.5969341749323713
tp65
a(F223.0477908025248
F176.8800721370604
F3.4625788999098286
F2.308385933273219
tp66
a(F329.522091974752
F176.59152389540125
F2.019837691614067
F3.4625788999098286
tp67
a(F232.85843101893596
F176.01442741208294
F2.5969341749323713
F2.308385933273219
tp68
a(F173.70604147880974
F174.86023444544634
F2.5969341749323713
F2.308385933273219
tp69
a(F239.78358881875562
F173.41749323715058
F14.138863841298466
F4.039675383228134
tp70
a(F218.1424706943192
F172.5518485121731
F3.4625788999098286
F2.308385933273219
tp71
a(F226.79891794409377
F172.26330027051398
F2.8854824165915236
F2.308385933273219
tp72
a(F235.1668169522092
F171.68620378719567
F2.308385933273219
F2.308385933273219
tp73
a(F180.34265103697024
F171.3976555455365
F3.1740306582506763
F2.308385933273219
tp74
a(F175.7258791704238
F170.8205590622182
F2.5969341749323713
F2.308385933273219
tp75
a(F242.09197475202885
F170.53201082055907
F2.308385933273219
F2.308385933273219
tp76
a(F171.10910730387735
F170.2434625788999
F3.751127141568981
F2.5969341749323713
tp77
a(F143.69702434625788
F168.80072137060415
F28.277727682596932
F12.407574391343552
tp78
a(F258.2506762849414
F168.512173128945
F16.447249774571684
F13.850315599639314
tp79
a(F243.5347159603246
F165.9152389540126
F2.8854824165915236
F2.308385933273219
tp80
a(F245.84310189359783
F165.04959422903516
F24.2380522993688
F7.213706041478809
tp81
a(F252.47971145175833
F163.89540126239854
F4.90532010820559
F2.8854824165915236
tp82
a(F260.84761045987375
F162.45266005410278
F2.8854824165915236
F2.308385933273219
tp83
a(F270.6582506762849
F158.99008115419295
F14.427412082957618
F7.213706041478809
tp84
a(F0.2885482416591524
F151.487826871055
F2.308385933273219
F35.20288548241659
tp85
a(F291.72227231740305
F149.17944093778178
F4.039675383228134
F2.308385933273219
tp86
a(F209.77457168620379
F109.93688007213706
F2.5969341749323713
F2.308385933273219
tp87
a(F328.9449954914337
F108.20559062218214
F2.5969341749323713
F67.52028854824165
tp88
a(F119.17042380522993
F88.29576194770063
F136.19477006311993
F21.352569882777274
tp89
a(F37.222723174030655
F83.39044183949504
F73.29125338142471
F52.804328223624886
tp90
a(F267.1956717763751
F82.52479711451758
F4.039675383228134
F2.308385933273219
tp91
a(F283.06582506762845
F82.23624887285843
F4.90532010820559
F2.5969341749323713
tp92
a(F272.38954012623987
F82.23624887285843
F3.751127141568981
F2.5969341749323713
tp93
a(F257.96212804328223
F82.23624887285843
F4.328223624887285
F2.5969341749323713
tp94
a(F274.4093778178539
F81.94770063119927
F28.854824165915236
F100.41478809738503
tp95
a(F112.53381424706943
F81.37060414788097
F162.45266005410278
F100.12623985572587
tp96
a(F0.2885482416591524
F78.1965734896303
F2.8854824165915236
F72.7141568981064
tp97
a(F313.65193868349866
F0.2885482416591524
F4.039675383228134
F1.1541929666366095
tp98
a(F305.8611361587015
F0.2885482416591524
F5.193868349864743
F1.4427412082957618
tp99
a(F288.2596934174932
F0.2885482416591524
F4.039675383228134
F1.7312894499549143
tp100
a(F270.9467989179441
F0.2885482416591524
F4.90532010820559
F1.7312894499549143
tp101
a(F262.29035166816954
F0.2885482416591524
F7.502254283137962
F1.7312894499549143
tp102
a(F251.90261496844002
F0.2885482416591524
F3.4625788999098286
F1.7312894499549143
tp103
a(F246.13165013525696
F0.2885482416591524
F4.90532010820559
F1.7312894499549143
tp104
a(F240.07213706041478
F0.2885482416591524
F4.616771866546438
F1.1541929666366095
tp105
a(F209.19747520288547
F0.2885482416591524
F3.751127141568981
F1.1541929666366095
tp106
a(F164.1839495040577
F0.2885482416591524
F3.751127141568981
F1.7312894499549143
tp107
a(F148.89089269612262
F0.2885482416591524
F6.348061316501353
F1.7312894499549143
tp108
a(F135.90622182146078
F0.2885482416591524
F3.751127141568981
F1.4427412082957618
tp109
a(F118.88187556357077
F0.2885482416591524
F4.616771866546438
F1.4427412082957618
tp110
a(F88.58431018935978
F0.2885482416591524
F4.039675383228134
F1.4427412082957618
tp111
a(F60.595130748422
F0.2885482416591524
F5.482416591523895
F1.7312894499549143
tp112
a(F49.63029756537421
F0.2885482416591524
F4.616771866546438
F1.7312894499549143
tp113
a(F0.2885482416591524
F0.2885482416591524
F3.1740306582506763
F68.67448151487827
tp114
asS'transformInv'
p115
g11
(g12
(I0
tp116
g14
tp117
Rp118
(I1
(I3
I3
tp119
g21
I01
S'\xe8[\x82?\xc1\xa9\xce;\xc7\xa6\xf88\xf7\x88\x90;\xde\x88v?\xdc|\xd7\xb8\xd1\xf1\xc9B\xff\x1d2C\t#~?'
p120
tp121
bsS'aspectRatio'
p122
(I11
F8.5
tp123
s.