ccopy_reg
_reconstructor
p0
(c__main__
Stuff
p1
c__builtin__
object
p2
Ntp3
Rp4
(dp5
S'corners'
p6
(lp7
(I235
I90
tp8
a(I920
I137
tp9
a(I990
I765
tp10
a(I16
I628
tp11
asS'transform'
p12
cnumpy.core.multiarray
_reconstruct
p13
(cnumpy
ndarray
p14
(I0
tp15
S'b'
p16
tp17
Rp18
(I1
(I3
I3
tp19
cnumpy
dtype
p20
(S'f4'
p21
I0
I1
tp22
Rp23
(I3
S'<'
p24
NNNI-1
I-1
I0
tp25
bI00
S'\x0b\x01\xd5?\x88i-?\x82\x03\xe2\xc3X^\x15\xbex\x0f\x08@Z\x0e\x1d\xc3"O\xa68\x1e\xcbc:\x00\x00\x80?'
p26
tp27
bsS'boxes'
p28
(lp29
(I801
I80
I54
I27
tp30
a(I725
I114
I72
I27
tp31
a(I799
I118
I91
I24
tp32
a(I778
I168
I53
I16
tp33
a(I807
I184
I37
I18
tp34
a(I474
I240
I66
I19
tp35
a(I473
I259
I151
I24
tp36
a(I474
I286
I55
I21
tp37
a(I615
I310
I75
I17
tp38
a(I473
I311
I135
I18
tp39
a(I472
I336
I210
I33
tp40
a(I730
I337
I111
I63
tp41
a(I416
I387
I136
I39
tp42
a(I137
I388
I64
I32
tp43
a(I559
I389
I99
I31
tp44
a(I308
I392
I101
I28
tp45
a(I41
I394
I95
I25
tp46
a(I208
I394
I92
I27
tp47
a(I78
I423
I550
I28
tp48
a(I548
I464
I120
I79
tp49
a(I790
I524
I30
I16
tp50
a(I380
I569
I63
I18
tp51
a(I249
I628
I143
I22
tp52
a(I705
I629
I190
I68
tp53
a(I705
I698
I206
I40
tp54
asS'mode'
p55
I1
sS'text'
p56
(lp57
S'a'
p58
aS'food'
p59
aS'STORES'
p60
aS'Sunday'
p61
aS'urday.'
p62
aS'Bone-in'
p63
aS'Shank Portion'
p64
aS'Ham'
p65
aS'....$1.19 lb'
p66
aS'Butt Portion Ham...'
p67
aS'shockingly low price!'
p68
aS'Domino Sugar'
p69
aS'Savings'
p70
aS'For'
p71
aS'Inside'
p72
aS'Easter'
p73
aS'Look'
p74
aS'More'
p75
aS'Over 20 Special Buys, plus all of your Easter essentials!'
p76
aS'Maxwell'
p77
aS'9'
p78
aS'0'
p79
aS'NA'
p80
aS''
p81
ag81
asS'ocrItemsRemaining'
p82
I2
sS'transformInv'
p83
g13
(g14
(I0
tp84
g16
tp85
Rp86
(I1
(I3
I3
tp87
g23
I01
S'\xf73\x11?\xf0\xff\x08=gH\x9b\xb8\xb7^\x89\xbe\xad4\xda>\x1a\x02\xb7\xb9V@VC~\x1b\xa4B\xaeei?'
p88
tp89
bsb.