(dp0
S'docWidth'
p1
I330
sS'ocrResults'
p2
(dp3
I0
S'Urethra'
p4
sI1
S'Rectum'
p5
sI2
S'Bladder'
p6
sI3
S'Largointestine'
p7
sI4
S'Appendix'
p8
sI5
S'intestine'
p9
sI6
S'Ureter'
p10
sI7
S'Small'
p11
sI8
S'Pancreas'
p12
sI9
S'Gallbladder'
p13
sI10
S'Stomach'
p14
sI11
S'Inferior'
p15
sI12
S'Spleen'
p16
sI13
S'Liver'
p17
sI14
S'Aorta'
p18
sI15
S'Lung'
p19
sI16
S'Diaphragm'
p20
sI17
S'cava'
p21
sI18
S'vena'
p22
sI19
S'Esophagus'
p23
sI20
S'Superior'
p24
sI21
S'Trachea'
p25
sI22
S'Heart'
p26
sI23
S'Thyroid'
p27
sI24
S'Aorta'
p28
ssS'transform'
p29
cnumpy.core.multiarray
_reconstruct
p30
(cnumpy
ndarray
p31
(I0
tp32
S'b'
p33
tp34
Rp35
(I1
(I3
I3
tp36
cnumpy
dtype
p37
(S'f4'
p38
I0
I1
tp39
Rp40
(I3
S'<'
p41
NNNI-1
I-1
I0
tp42
bI00
S"?i{?\x9a\xc5\xef\xbb\xd8'=\xc28sU\xbc\xe64\x84?\xf7A\x88\xc2]\xe9\xec\xb8\xdb\xd2\xab8\x00\x00\x80?"
p43
tp44
bsS'docHeight'
p45
I427
sS'documentCorners'
p46
(lp47
(F48.64808654785156
F66.57469177246094
tp48
a(F372.5068359375
F70.65966033935547
tp49
a(F386.38848876953125
F482.5475769042969
tp50
a(F51.83537673950195
F494.35205078125
tp51
asS'smallBoxes'
p52
(lp53
(F35.7799819657349
F350.8746618575293
F28.566275924256086
F7.502254283137962
tp54
a(F240.36068530207393
F334.71596032461673
F29.720468890892693
F6.925157799819657
tp55
a(F34.91433724075744
F326.92515779981966
F30.009017132551847
F6.925157799819657
tp56
a(F270.6582506762849
F305.8611361587015
F32.60595130748422
F13.850315599639314
tp57
a(F25.103697024346257
F299.80162308385934
F34.62578899909828
F8.079350766456267
tp58
a(F270.9467989179441
F285.3742110009017
F31.74030658250676
F5.770964833183047
tp59
a(F48.4761045987376
F279.8917944093778
F24.2380522993688
F6.6366095581605045
tp60
a(F271.23534715960324
F277.00631199278627
F22.21821460775473
F6.925157799819657
tp61
a(F252.47971145175833
F257.09648331830476
F35.7799819657349
F7.502254283137962
tp62
a(F30.009017132551847
F236.03246167718663
F43.85933273219116
F7.213706041478809
tp63
a(F253.05680793507662
F234.0126239855726
F33.183047790802526
F7.213706041478809
tp64
a(F27.412082957619475
F214.96844003606853
F26.546438232642018
F6.6366095581605045
tp65
a(F252.7682596934175
F212.08295761947699
F27.12353471596032
F7.213706041478809
tp66
a(F40.973850315599634
F194.19296663660955
F19.909828674481513
F6.6366095581605045
tp67
a(F271.5238954012624
F189.28764652840397
F20.77547339945897
F6.0595130748422
tp68
a(F41.55094679891794
F171.3976555455365
F19.909828674481513
F8.079350766456267
tp69
a(F254.21100090171325
F165.62669071235345
F40.396753832281334
F7.790802524797114
tp70
a(F46.744815148782685
F152.35347159603245
F18.755635707844906
F5.193868349864743
tp71
a(F27.412082957619475
F152.35347159603245
F18.755635707844906
F4.90532010820559
tp72
a(F271.5238954012624
F142.83137962128043
F41.55094679891794
F7.213706041478809
tp73
a(F27.98917944093778
F142.83137962128043
F31.163210099188458
F7.502254283137962
tp74
a(F8.079350766456267
F121.47880973850314
F30.297565374211
F6.0595130748422
tp75
a(F266.04147880973846
F119.17042380522993
F21.92966636609558
F6.925157799819657
tp76
a(F27.98917944093778
F98.68349864743011
F27.98917944093778
F7.213706041478809
tp77
a(F265.75293056807936
F97.81785392245266
F21.641118124436428
F6.348061316501353
tp78
asS'transformInv'
p79
g30
(g31
(I0
tp80
g33
tp81
Rp82
(I1
(I3
I3
tp83
g40
I01
S"\xf3\x0e\x83?\x0ee\xa7<\xae\x0f\xef8\xf0v^;\x1c\x8av?p\xab\xa4\xb8\xb0\x99BB\xa4'\x85BY\x01\x80?"
p84
tp85
bsS'aspectRatio'
p86
(F8.5
I11
tp87
s.