(dp0
S'docWidth'
p1
I426
sS'ocrResults'
p2
(dp3
I0
S'lynn'
p4
sI1
S'Z1'
p5
sI2
S'wins'
p6
sI3
S'turkey'
p7
sI4
S'pain'
p8
sI5
S'greece'
p9
sI6
S'portugal'
p10
sI7
S'georgia'
p11
sI8
S'said'
p12
sI9
S'I12'
p13
sI10
S'romania'
p14
sI11
S'france'
p15
sI12
S'JN'
p16
sI13
S'Ex'
p17
sI14
S'ukraine'
p18
sI15
S'germany'
p19
sI16
S'vw'
p20
sI17
S'poland'
p21
sI18
S'netherlands'
p22
sI19
S'ireland'
p23
sI20
S'denmark'
p24
sI21
S'lithuania'
p25
sI22
S'latvia'
p26
sI23
S'estonia'
p27
sI24
S'mom'
p28
sI25
S'ZN'
p29
sI26
S'051'
p30
sI27
S'norway'
p31
sI28
S'finland'
p32
sI29
S'sweden'
p33
sI30
S'HIP'
p34
ssS'transform'
p35
cnumpy.core.multiarray
_reconstruct
p36
(cnumpy
ndarray
p37
(I0
tp38
S'b'
p39
tp40
Rp41
(I1
(I3
I3
tp42
cnumpy
dtype
p43
(S'f4'
p44
I0
I1
tp45
Rp46
(I3
S'<'
p47
NNNI-1
I-1
I0
tp48
bI00
S'd\xb7|?\xffc\x05<\xd2\n\x04\xc2\x93\xb9\x14\xbcbU\x83?\x97\xc0\xee\xc2\xe6\xef\xe5\xb8?K\xb78\x00\x00\x80?'
p49
tp50
bsS'docHeight'
p51
I329
sS'documentCorners'
p52
(lp53
(F32.47757339477539
F116.63346099853516
tp54
a(F447.35357666015625
F120.30388641357422
tp55
a(F456.2716979980469
F437.244873046875
tp56
a(F29.738174438476562
F448.7904357910156
tp57
asS'smallBoxes'
p58
(lp59
(F314.2290351668169
F310.4779080252479
F17.31289449954914
F6.348061316501353
tp60
a(F324.6167718665464
F298.6474301172227
F10.96483318304779
F5.482416591523895
tp61
a(F218.43101893597836
F291.72227231740305
F20.77547339945897
F8.944995491433724
tp62
a(F287.39404869251575
F281.9116321009919
F27.412082957619475
F8.944995491433724
tp63
a(F49.918845807033364
F280.18034265103694
F23.372407574391342
F7.502254283137962
tp64
a(F204.58070333633904
F277.5834084761046
F31.163210099188458
F8.944995491433724
tp65
a(F10.96483318304779
F268.92696122633004
F34.04869251577998
F8.944995491433724
tp66
a(F334.71596032461673
F254.78809738503153
F34.62578899909828
F9.522091974752028
tp67
a(F279.8917944093778
F246.70874661857528
F15.004508566275923
F5.193868349864743
tp68
a(F147.1596032461677
F246.13165013525696
F18.755635707844906
F8.367899008115419
tp69
a(F218.1424706943192
F225.06762849413886
F44.43642921550946
F8.944995491433724
tp70
a(F82.23624887285843
F219.00811541929664
F27.98917944093778
F7.213706041478809
tp71
a(F182.9395852119026
F208.62037871956716
F8.367899008115419
F4.328223624887285
tp72
a(F122.3444544634806
F197.65554553651938
F10.387736699729485
F3.751127141568981
tp73
a(F258.8277727682597
F195.058611361587
F31.163210099188458
F7.790802524797114
tp74
a(F126.67267808836789
F175.43733092876465
F36.06853020739405
F8.944995491433724
tp75
a(F251.61406672678086
F173.12894499549142
F7.790802524797114
F3.1740306582506763
tp76
a(F183.22813345356175
F165.9152389540126
F28.566275924256086
F7.502254283137962
tp77
a(F99.83769161406673
F162.45266005410278
F37.222723174030655
F6.348061316501353
tp78
a(F14.715960324616772
F158.7015329125338
F27.98917944093778
F7.213706041478809
tp79
a(F128.4039675383228
F131.28944995491432
F28.566275924256086
F6.348061316501353
tp80
a(F209.48602344454463
F129.26961226330027
F36.645626690712355
F7.502254283137962
tp81
a(F228.24165915238953
F114.26510369702434
F25.39224526600541
F6.348061316501353
tp82
a(F224.7790802524797
F94.06672678088367
F29.720468890892693
F7.213706041478809
tp83
a(F191.01893597835888
F83.96753832281334
F13.273219116321009
F4.328223624887285
tp84
a(F294.03065825067625
F78.48512173128944
F6.925157799819657
F3.751127141568981
tp85
a(F262.57889990982864
F77.61947700631198
F12.696122633002705
F4.328223624887285
tp86
a(F122.63300270513976
F55.1127141568981
F29.720468890892693
F7.790802524797114
tp87
a(F226.22182146077546
F52.22723174030658
F30.58611361587015
F7.502254283137962
tp88
a(F166.20378719567177
F18.1785392245266
F32.02885482416591
F7.502254283137962
tp89
a(F352.0288548241659
F2.8854824165915236
F22.21821460775473
F9.233543733092876
tp90
asS'transformInv'
p91
g36
(g37
(I0
tp92
g39
tp93
Rp94
(I1
(I3
I3
tp95
g46
I01
S'\xee\x1b\x82?\xd2\x14\xb2<\xc8\xbd\xe58\xdc,1\xbcn\xeev?\x92I\xb3\xb8\xe5\r\x01B\xd8\xba\xe7B*P~?'
p96
tp97
bsS'aspectRatio'
p98
(I11
F8.5
tp99
s.