(dp0
S'docWidth'
p1
I429
sS'ocrResults'
p2
(dp3
I0
S'e.'
p4
sI1
S'>'
p5
sI2
g5
sI3
S'J'
p6
sI4
S'Turkey'
p7
sI5
S'-'
p8
sI6
S'Greece'
p9
sI7
g5
sI8
g8
sI9
S'PortugalSpain'
p10
sI10
S'Azerbaijan'
p11
sI11
S'C^spraoSea'
p12
sI12
S'GeorgiaAzer'
p13
sI13
S'&aek Sea'
p14
sI14
S'Italy'
p15
sI15
S"SerbiaBulgaria/ ' * ^"
p16
sI16
V&a/o*&scay
p17
sI17
S'pnviHungaryRomania'
p18
sI18
S'France'
p19
sI19
S'Moldova'
p20
sI20
V, *-vfs AustriaCroatiaA a a
p21
sI21
S'Ukraine'
p22
sI22
S'Ofcc Sea'
p23
sI23
S'Czech RepSlovakia'
p24
sI24
VBelgium Germany^ c
p25
sI25
S'Poland'
p26
sI26
S'Netherlands'
p27
sI27
S'Ireland'
p28
sI28
S'Belarus'
p29
sI29
S'UnitedKingdom'
p30
sI30
S'Lithuania'
p31
sI31
S'Denmjrfc'
p32
sI32
S'Nonh S*a'
p33
sI33
S'Latvia'
p34
sI34
S'Baltic S*a'
p35
sI35
S'Estonia'
p36
sI36
S'r.r'
p37
sI37
S'Finland'
p38
sI38
S'Norway'
p39
sI39
S'>j'
p40
sI40
S'<'
p41
sI41
S'Sweden'
p42
ssS'transform'
p43
cnumpy.core.multiarray
_reconstruct
p44
(cnumpy
ndarray
p45
(I0
tp46
S'b'
p47
tp48
Rp49
(I1
(I3
I3
tp50
cnumpy
dtype
p51
(S'f4'
p52
I0
I1
tp53
Rp54
(I3
S'<'
p55
NNNI-1
I-1
I0
tp56
bI00
S'!\xdb~?\x08\xe4\x8c<\xabU\xb6\xc17}Z\xbc\xa1\xcf\x83?\xc0]\xe7\xc2$)\xc3\xb8/S\xb58\x00\x00\x80?'
p57
tp58
bsS'docHeight'
p59
I331
sS'documentCorners'
p60
(lp61
(F20.948720932006836
F112.6096420288086
tp62
a(F438.5899658203125
F118.01807403564453
tp63
a(F444.7455139160156
F438.4083251953125
tp64
a(F15.190820693969727
F445.90283203125
tp65
asS'smallBoxes'
p66
(lp67
(F105.60865644724977
F307.30387736699726
F7.502254283137962
F5.770964833183047
tp68
a(F144.8512173128945
F301.8214607754734
F6.925157799819657
F6.348061316501353
tp69
a(F369.91884580703334
F292.8764652840397
F7.213706041478809
F5.770964833183047
tp70
a(F321.44274120829573
F292.8764652840397
F7.790802524797114
F6.0595130748422
tp71
a(F304.41839495040574
F273.2551848512173
F30.58611361587015
F20.486925157799817
tp72
a(F266.6185752930568
F271.5238954012624
F8.367899008115419
F5.770964833183047
tp73
a(F228.5302073940487
F269.5040577096483
F32.31740306582507
F16.735798016230838
tp74
a(F204.29215509467988
F269.5040577096483
F6.348061316501353
F5.770964833183047
tp75
a(F197.36699729486023
F262.29035166816954
F7.502254283137962
F5.770964833183047
tp76
a(F44.43642921550946
F258.2506762849414
F63.48061316501352
F23.08385933273219
tp77
a(F366.16771866546435
F257.6735798016231
F46.456266907123535
F24.2380522993688
tp78
a(F393.868349864743
F243.24616771866545
F27.12353471596032
F16.158701532912534
tp79
a(F344.52660054102796
F242.09197475202885
F43.85933273219116
F29.14337240757439
tp80
a(F296.05049594229035
F239.49504057709646
F33.183047790802526
F10.676284941388637
tp81
a(F171.3976555455365
F237.47520288548242
F28.854824165915236
F23.660955816050496
tp82
a(F221.8935978358882
F233.72407574391343
F56.266907123534715
F35.20288548241659
tp83
a(F75.59963931469792
F219.00811541929664
F24.526600541027953
F16.735798016230838
tp84
a(F213.23715058611361
F209.77457168620379
F64.34625788999098
F21.92966636609558
tp85
a(F111.95671776375112
F208.04328223624887
F31.451758340847608
F15.581605049594229
tp86
a(F263.4445446348061
F204.8692515779982
F30.297565374211
F10.676284941388637
tp87
a(F143.98557258791703
F204.58070333633904
F69.25157799819657
F37.51127141568981
tp88
a(F278.44905320108205
F191.59603246167717
F33.760144274120826
F11.830477908025248
tp89
a(F49.34174932371506
F191.307484220018
F32.31740306582507
F10.676284941388637
tp90
a(F183.5166816952209
F187.55635707844905
F64.05770964833182
F18.467087466185752
tp91
a(F124.94138863841297
F171.68620378719567
F68.38593327321911
F30.874661857529304
tp92
a(F207.46618575293056
F163.31830477908025
F31.74030658250676
F11.830477908025248
tp93
a(F128.4039675383228
F158.99008115419295
F40.10820559062218
F10.676284941388637
tp94
a(F48.4761045987376
F154.95040577096484
F31.451758340847608
F11.830477908025248
tp95
a(F259.1163210099188
F153.50766456266905
F33.760144274120826
F11.541929666366094
tp96
a(F77.90802524797114
F132.1550946798918
F38.66546438232642
F19.33273219116321
tp97
a(F232.5698827772768
F129.84670874661856
F39.24256086564472
F12.407574391343552
tp98
a(F156.10459873760144
F129.84670874661856
F32.02885482416591
F10.96483318304779
tp99
a(F118.30477908025247
F118.01623083859332
F31.74030658250676
F9.522091974752028
tp100
a(F250.45987376014426
F115.41929666366094
F28.277727682596932
F11.253381424706943
tp101
a(F212.94860234445446
F99.26059513074841
F32.02885482416591
F9.81064021641118
tp102
a(F246.70874661857528
F96.3751127141569
F32.89449954914337
F11.830477908025248
tp103
a(F147.44815148782686
F77.33092876465284
F9.81064021641118
F9.522091974752028
tp104
a(F249.0171325518485
F57.70964833183047
F33.471596032461676
F11.830477908025248
tp105
a(F151.19927862939585
F51.93868349864743
F33.471596032461676
F19.33273219116321
tp106
a(F29.720468890892693
F28.566275924256086
F12.407574391343552
F8.944995491433724
tp107
a(F13.273219116321009
F28.566275924256086
F6.0595130748422
F5.770964833183047
tp108
a(F192.7502254283138
F24.815148782687103
F35.20288548241659
F11.830477908025248
tp109
asS'transformInv'
p110
g44
(g45
(I0
tp111
g47
tp112
Rp113
(I1
(I3
I3
tp114
g54
I01
S'\x9f\xca\x80?y\x0e\xbf<y#\xc08\xf9\xf5\x97\xbc\xc7\x18v?B\xee\xb1\xb8zK\xa6A\xa3z\xdfB\x9d\x05~?'
p115
tp116
bsS'aspectRatio'
p117
(I11
F8.5
tp118
s.