(dp0
S'docWidth'
p1
I425
sS'ocrResults'
p2
(dp3
I0
S'GALLUP'
p4
sI1
S'Gallup. July 9-12,2012'
p5
sI2
S'10'
p6
sI3
S'24'
p7
sI4
S'16'
p8
sI5
S'332845'
p9
sI6
S'DemocratsIndependentsRepublicans'
p10
sI7
S'39'
p11
sI8
S'10'
p12
sI9
S'All Americans'
p13
sI10
V% Not tooclosely18
p14
sI11
V% Somewhatclosely
p15
sI12
V% Not atall
p16
sI13
VHow closely are you following the news about the 2012 presidential electioncampaign  very closely. somewhat closely, not too closely, or not at all?
p17
ssS'transform'
p18
cnumpy.core.multiarray
_reconstruct
p19
(cnumpy
ndarray
p20
(I0
tp21
S'b'
p22
tp23
Rp24
(I1
(I3
I3
tp25
cnumpy
dtype
p26
(S'f4'
p27
I0
I1
tp28
Rp29
(I3
S'<'
p30
NNNI-1
I-1
I0
tp31
bI00
S'T\xe5|?\xd6t\xdf<\xcd\x0c\xcc\xc1v*\xff\xbc\xa4_\x83?9\x1b\xc5\xc2\x8b(\xd6\xb8\x84\xef\xa78\x00\x00\x80?'
p32
tp33
bsS'docHeight'
p34
I328
sS'documentCorners'
p35
(lp36
(F23.148540496826172
F96.72490692138672
tp37
a(F437.5600891113281
F109.30159759521484
tp38
a(F439.63134765625
F425.48291015625
tp39
a(F14.043231010437012
F426.4815673828125
tp40
asS'smallBoxes'
p41
(lp42
(F39.81965734896303
F240.07213706041478
F51.36158701532912
F15.293056807935075
tp43
a(F38.37691614066726
F215.25698827772766
F96.08656447249774
F17.02434625788999
tp44
a(F290.5680793507664
F196.50135256988276
F28.277727682596932
F16.158701532912534
tp45
a(F283.06582506762845
F182.07394048692515
F28.854824165915236
F15.581605049594229
tp46
a(F290.5680793507664
F166.78088367899008
F15.004508566275923
F12.696122633002705
tp47
a(F137.06041478809738
F163.89540126239854
F56.266907123534715
F49.05320108205591
tp48
a(F39.81965734896303
F163.89540126239854
F69.54012623985572
F49.34174932371506
tp49
a(F222.47069431920647
F140.5229936880072
F17.02434625788999
F12.1190261496844
tp50
a(F347.4120829576195
F139.9458972046889
F15.87015329125338
F10.676284941388637
tp51
a(F41.55094679891794
F135.90622182146078
F71.27141568981064
F22.506762849413885
tp52
a(F273.8322813345356
F115.1307484220018
F47.033363390441835
F35.49143372407574
tp53
a(F199.96393146979258
F115.1307484220018
F61.1722272317403
F24.815148782687103
tp54
a(F335.0045085662759
F114.55365193868349
F41.55094679891794
F23.949504057709646
tp55
a(F41.55094679891794
F77.61947700631198
F330.3877366997295
F33.183047790802526
tp56
asS'transformInv'
p57
g19
(g20
(I0
tp58
g22
tp59
Rp60
(I1
(I3
I3
tp61
g29
I01
S'\x83\xc2\x81?\xafu%=\xa4Q\xd28\x7fm\xeb\xbc\xca:w??V\xa8\xb8q2\xb8A\x10j\xc0B2\xa1~?'
p62
tp63
bsS'aspectRatio'
p64
(I11
F8.5
tp65
s.