(dp0
S'docWidth'
p1
I426
sS'ocrResults'
p2
(dp3
I0
S'test'
p4
sI1
S'test'
p5
sI2
S'test'
p6
sI3
S'test'
p7
sI4
S'test'
p8
sI5
S'test'
p9
sI6
S'test'
p10
sI7
S'test'
p11
sI8
S'test'
p12
sI9
S'test'
p13
sI10
S'test'
p14
sI11
S'test'
p15
sI12
S'test'
p16
sI13
S'test'
p17
sI14
S'test'
p18
sI15
S'test'
p19
sI16
S'test'
p20
sI17
S'test'
p21
sI18
S'test'
p22
sI19
S'test'
p23
sI20
S'test'
p24
sI21
S'test'
p25
sI22
S'test'
p26
sI23
S'test'
p27
sI24
S'test'
p28
sI25
S'test'
p29
sI26
S'test'
p30
sI27
S'test'
p31
sI28
S'test'
p32
sI29
S'test'
p33
sI30
S'test'
p34
ssS'transform'
p35
cnumpy.core.multiarray
_reconstruct
p36
(cnumpy
ndarray
p37
(I0
tp38
S'b'
p39
tp40
Rp41
(I1
(I3
I3
tp42
cnumpy
dtype
p43
(S'f4'
p44
I0
I1
tp45
Rp46
(I3
S'<'
p47
NNNI-1
I-1
I0
tp48
bI00
S'\x14h|?\xd2\xbb\x9d<\xbap\xe9\xc1Xf\xa2\xbc\x99s\x82?\x1aL\x1a\xc3\x97e\xde\xb8\xa6\xe1\x978\x00\x00\x80?'
p49
tp50
bsS'docHeight'
p51
I329
sS'documentCorners'
p52
(lp53
(F26.628753662109375
F151.91555786132812
tp54
a(F443.2339172363281
F160.0192108154297
tp55
a(F446.8193664550781
F478.8038635253906
tp56
a(F20.118915557861328
F485.2624206542969
tp57
asS'smallBoxes'
p58
(lp59
(F42.4165915238954
F243.24616771866545
F40.973850315599634
F8.944995491433724
tp60
a(F44.43642921550946
F219.87376014427412
F87.71866546438233
F10.099188458070333
tp61
a(F293.45356176735794
F200.25247971145174
F10.099188458070333
F5.770964833183047
tp62
a(F224.7790802524797
F199.67538322813346
F12.1190261496844
F7.213706041478809
tp63
a(F352.31740306582503
F199.3868349864743
F7.502254283137962
F7.213706041478809
tp64
a(F164.761045987376
F199.3868349864743
F11.541929666366094
F8.944995491433724
tp65
a(F45.01352569882777
F199.09828674481514
F47.89900811541929
F9.522091974752028
tp66
a(F225.06762849413886
F185.53651938683498
F12.407574391343552
F8.079350766456267
tp67
a(F292.29936880072137
F185.24797114517582
F11.253381424706943
F8.079350766456267
tp68
a(F351.16321009918846
F184.95942290351667
F10.96483318304779
F7.213706041478809
tp69
a(F164.1839495040577
F184.6708746618575
F12.1190261496844
F7.502254283137962
tp70
a(F44.72497745716862
F183.80522993688007
F54.5356176735798
F10.676284941388637
tp71
a(F164.47249774571685
F171.68620378719567
F11.541929666366094
F7.790802524797114
tp72
a(F44.43642921550946
F170.53201082055907
F40.973850315599634
F8.079350766456267
tp73
a(F293.45356176735794
F170.2434625788999
F9.81064021641118
F6.6366095581605045
tp74
a(F225.35617673579802
F170.2434625788999
F11.830477908025248
F8.367899008115419
tp75
a(F225.35617673579802
F143.40847610459872
F12.1190261496844
F7.213706041478809
tp76
a(F351.4517583408476
F143.1199278629396
F9.81064021641118
F5.482416591523895
tp77
a(F164.47249774571685
F143.1199278629396
F11.830477908025248
F8.079350766456267
tp78
a(F293.16501352569884
F142.25428313796212
F10.676284941388637
F6.348061316501353
tp79
a(F43.570784490532006
F142.25428313796212
F55.97835888187556
F7.790802524797114
tp80
a(F153.7962128043282
F129.5581605049594
F32.60595130748422
F8.65644724977457
tp81
a(F349.4319206492335
F129.26961226330027
F13.56176735798016
F7.213706041478809
tp82
a(F283.06582506762845
F129.26961226330027
F30.58611361587015
F8.944995491433724
tp83
a(F215.54553651938681
F128.69251577998196
F30.874661857529304
F9.522091974752028
tp84
a(F154.37330928764652
F118.59332732191163
F32.02885482416591
F9.233543733092876
tp85
a(F202.84941388638413
F118.30477908025247
F55.97835888187556
F8.367899008115419
tp86
a(F338.17853922452656
F118.01623083859332
F36.06853020739405
F7.502254283137962
tp87
a(F276.42921550946795
F118.01623083859332
F42.4165915238954
F7.790802524797114
tp88
a(F43.282236248872856
F97.5293056807935
F311.05500450856624
F11.830477908025248
tp89
a(F44.43642921550946
F82.23624887285843
F325.1938683498647
F11.830477908025248
tp90
asS'transformInv'
p91
g36
(g37
(I0
tp92
g39
tp93
Rp94
(I1
(I3
I3
tp95
g46
I01
S'\xb5!\x82?6A\x12=h\xad\xdc8\x05\xb9\xac\xbcpFx?\xcb\xfc\x97\xb8MM\xd3A\xe9\xae\x16Ca\xec}?'
p96
tp97
bsS'aspectRatio'
p98
(I11
F8.5
tp99
s.