(dp0
S'docWidth'
p1
I422
sS'ocrResults'
p2
(dp3
I0
S'Lake Shore'
p4
sI1
S'Marley'
p5
sI2
S'Severn'
p6
sI3
S'S5'
p7
sI4
S'Beach'
p8
sI5
S'Chea'
p9
sI6
S'Burnie'
p10
sI7
S'Glen'
p11
sI8
S'Riviera'
p12
sI9
S'Dorsey'
p13
sI10
S'Howard'
p14
sI11
S'I F011'
p15
sI12
S'Highlands'
p16
sI13
S'Baltimore'
p17
sI14
S'ansdown'
p18
sI15
S'Edgemere'
p19
sI16
S'Dundalk'
p20
sI17
S'Point'
p21
sI18
S'Turkey'
p22
sI19
S'Park'
p23
sI20
S'Essex'
p24
sI21
S'Rosedale'
p25
sI22
S'Forest'
p26
sI23
S'Kenwood'
p27
sI24
S'Lochearn'
p28
sI25
S'Overlea'
p29
sI26
S'White Marsh'
p30
sI27
S'Parkville'
p31
ssS'transform'
p32
cnumpy.core.multiarray
_reconstruct
p33
(cnumpy
ndarray
p34
(I0
tp35
S'b'
p36
tp37
Rp38
(I1
(I3
I3
tp39
cnumpy
dtype
p40
(S'f4'
p41
I0
I1
tp42
Rp43
(I3
S'<'
p44
NNNI-1
I-1
I0
tp45
bI00
S'\xe8|m?\xdf;`\xbc~\xe4\x15\xc2\x89\xaa\xf8;\xe3Gp?[7U\xc3,}\x14\xb9\xbd\x1f\xd3\xb7\x00\x00\x80?'
p46
tp47
bsS'docHeight'
p48
I326
sS'documentCorners'
p49
(lp50
(F43.740291595458984
F226.8112030029297
tp51
a(F466.00787353515625
F223.39710998535156
tp52
a(F467.0
F543.0
tp53
a(F48.755332946777344
F566.745361328125
tp54
asS'smallBoxes'
p55
(lp56
(F242.9576194770063
F293.16501352569884
F64.05770964833182
F11.253381424706943
tp57
a(F122.92155094679892
F282.20018034265104
F40.973850315599634
F13.56176735798016
tp58
a(F31.163210099188458
F274.4093778178539
F39.24256086564472
F10.676284941388637
tp59
a(F369.05320108205586
F254.21100090171325
F8.367899008115419
F6.348061316501353
tp60
a(F241.8034265103697
F251.3255184851217
F35.20288548241659
F10.96483318304779
tp61
a(F299.80162308385934
F250.1713255184851
F29.14337240757439
F10.387736699729485
tp62
a(F180.34265103697024
F240.36068530207393
F40.10820559062218
F10.387736699729485
tp63
a(F151.19927862939585
F239.78358881875562
F28.854824165915236
F10.96483318304779
tp64
a(F241.51487826871053
F236.3210099188458
F42.12804328223625
F10.387736699729485
tp65
a(F51.65013525698828
F229.39585211902613
F41.26239855725879
F12.696122633002705
tp66
a(F293.16501352569884
F224.49053201082054
F46.456266907123535
F11.253381424706943
tp67
a(F285.3742110009017
F209.48602344454463
F33.471596032461676
F10.676284941388637
tp68
a(F148.31379621280433
F205.15779981965733
F59.15238954012624
F13.56176735798016
tp69
a(F148.31379621280433
F189.5761947700631
F56.555455365193865
F10.96483318304779
tp70
a(F53.95852119026149
F174.28313796212802
F52.515779981965736
F10.099188458070333
tp71
a(F295.7619477006312
F166.20378719567177
F55.97835888187556
F13.56176735798016
tp72
a(F195.058611361587
F156.68169522091975
F46.456266907123535
F10.099188458070333
tp73
a(F316.53742110009017
F124.65284039675383
F31.451758340847608
F10.099188458070333
tp74
a(F314.2290351668169
F108.78268710550044
F41.83949504057709
F13.850315599639314
tp75
a(F110.2254283137962
F94.64382326420198
F27.70063119927863
F10.676284941388637
tp76
a(F260.27051397655543
F91.18124436429216
F32.02885482416591
F10.387736699729485
tp77
a(F173.12894499549142
F82.52479711451758
F50.78449053201082
F10.676284941388637
tp78
a(F109.93688007213706
F79.92786293958521
F35.7799819657349
F10.099188458070333
tp79
a(F247.57439134355275
F64.63480613165014
F53.38142470694319
F10.96483318304779
tp80
a(F57.13255184851217
F61.1722272317403
F52.804328223624886
F10.099188458070333
tp81
a(F172.26330027051398
F48.4761045987376
F44.72497745716862
F10.676284941388637
tp82
a(F293.16501352569884
F38.37691614066726
F72.7141568981064
F10.676284941388637
tp83
a(F208.62037871956716
F23.660955816050496
F50.207394048692514
F10.676284941388637
tp84
asS'transformInv'
p85
g33
(g34
(I0
tp86
g36
tp87
Rp88
(I1
(I3
I3
tp89
g43
I01
S'\x1e\xd3\x8a?p5\xd7<Y\xbd!9\xfdF\x8b<\xed5\x89?4\x83\xf67\x98\x111B\x18\x8beC\xb8\x8a\x81?'
p90
tp91
bsS'aspectRatio'
p92
(I11
F8.5
tp93
s.