ccopy_reg
_reconstructor
p0
(cstudyHelper
Stuff
p1
c__builtin__
object
p2
Ntp3
Rp4
(dp5
S'searchButton'
p6
(lp7
I0
aI0
aI0
aI0
asS'corners'
p8
(lp9
(F81.38380432128906
F50.56713104248047
tp10
a(F403.1328125
F53.98527145385742
tp11
a(F414.29400634765625
F531.3436889648438
tp12
a(F82.12493133544922
F539.8102416992188
tp13
asS'transform'
p14
cnumpy.core.multiarray
_reconstruct
p15
(cnumpy
ndarray
p16
(I0
tp17
S'b'
p18
tp19
Rp20
(I1
(I3
I3
tp21
cnumpy
dtype
p22
(S'f4'
p23
I0
I1
tp24
Rp25
(I3
S'<'
p26
NNNI-1
I-1
I0
tp27
bI00
S'\xdbl\x92?\x85"\xe3\xba\xb3\x05\xba\xc2\x1dJ3\xbc\xfc\xd8\x83?H\xc9L\xc2\xff\xe5\x9b\xb8;l\x8e8\x00\x00\x80?'
p28
tp29
bsS'boxes'
p30
(lp31
sS'mode'
p32
I0
sS'text'
p33
(dp34
sS'ocrItemsRemaining'
p35
I0
sS'transformInv'
p36
g15
(g16
(I0
tp37
g18
tp38
Rp39
(I1
(I3
I3
tp40
g25
I01
S'm"a?L\x9dM<\x8cP\x878\x8f\x9b\x7f\xbb\xd6\xadw?\xccf\x8a\xb8\xca1\xa3B\x8b\xccJB\xf0U\x80?'
p41
tp42
bsS'overlays'
p43
(dp44
sS'finger'
p45
(I-1
I-1
tp46
sb.