ccopy_reg
_reconstructor
p0
(cstudyHelper
Stuff
p1
c__builtin__
object
p2
Ntp3
Rp4
(dp5
S'searchButton'
p6
(lp7
I0
aI0
aI0
aI0
asS'corners'
p8
(lp9
(F79.91912078857422
F51.59666442871094
tp10
a(F402.30596923828125
F53.90593719482422
tp11
a(F412.198486328125
F532.35107421875
tp12
a(F81.70978546142578
F540.4193725585938
tp13
asS'transform'
p14
cnumpy.core.multiarray
_reconstruct
p15
(cnumpy
ndarray
p16
(I0
tp17
S'b'
p18
tp19
Rp20
(I1
(I3
I3
tp21
cnumpy
dtype
p22
(S'f4'
p23
I0
I1
tp24
Rp25
(I3
S'<'
p26
NNNI-1
I-1
I0
tp27
bI00
S'\x156\x92?V\x1d\x89\xbb\xc3%\xb6\xc2[\xc9\xef\xbb}\xc3\x82?\xdf\x80P\xc2V\xeb\x87\xb8\x7f\xd4]8\x00\x00\x80?'
p28
tp29
bsS'boxes'
p30
(lp31
sS'mode'
p32
I0
sS'text'
p33
(dp34
sS'ocrItemsRemaining'
p35
I0
sS'transformInv'
p36
g15
(g16
(I0
tp37
g18
tp38
Rp39
(I1
(I3
I3
tp40
g25
I01
S'\xe1Fa?\x15\x8c\x16<!-m8Bg\x0e\xba\xe8\xe9y?,\xb4X\xb8\x1f;\xa0B\xc9\xe4NB\x81P\x80?'
p41
tp42
bsS'overlays'
p43
(dp44
sS'finger'
p45
(I-1
I-1
tp46
sb.