ccopy_reg
_reconstructor
p0
(cstudyHelper
Stuff
p1
c__builtin__
object
p2
Ntp3
Rp4
(dp5
S'searchButton'
p6
(lp7
I0
aI0
aI0
aI0
asS'corners'
p8
(lp9
(lp10
F326.3904113769531
aF116.32072448730469
aa(lp11
F370.5749206542969
aF135.32412719726562
aa(lp12
F405.0
aF280.5
aa(lp13
F402.3369445800781
aF269.7818908691406
aasS'transform'
p14
cnumpy.core.multiarray
_reconstruct
p15
(cnumpy
ndarray
p16
(I0
tp17
S'b'
p18
tp19
Rp20
(I1
(I3
I3
tp21
cnumpy
dtype
p22
(S'f4'
p23
I0
I1
tp24
Rp25
(I3
S'<'
p26
NNNI-1
I-1
I0
tp27
bI00
S"\xe9\x97\x98\xbc\xbf\x08\x17<\xd2<\xa0@\xa0y\\\xb9\xe2'\x00:\r\xb1@<\xb7\x84C\xbbb\xfcB:\x00\x00\x80?"
p28
tp29
bsS'boxes'
p30
(lp31
(lp32
F0.5
aF0.5
aF130.5
aF22.5
aasS'mode'
p33
I0
sS'text'
p34
(dp35
sS'ocrItemsRemaining'
p36
I0
sS'transformInv'
p37
g15
(g16
(I0
tp38
g18
tp39
Rp40
(I1
(I3
I3
tp41
g25
I01
S'\xb8{\x14\xc4(\xb2X\xc3\xda,\xce\xbf(`\xd4Eh\x92\x8eEw\r\x87A\\\xe24E\xce\xed\x80D\xc8\xdf\rA'
p42
tp43
bsS'overlays'
p44
(dp45
sS'finger'
p46
(I-1
I-1
tp47
sb.