ccopy_reg
_reconstructor
p0
(cstudyHelper
Stuff
p1
c__builtin__
object
p2
Ntp3
Rp4
(dp5
S'searchButton'
p6
(lp7
I0
aI0
aI0
aI0
asS'corners'
p8
(lp9
sS'transform'
p10
NsS'boxes'
p11
(lp12
sS'mode'
p13
I0
sS'text'
p14
(dp15
sS'ocrItemsRemaining'
p16
I0
sS'transformInv'
p17
NsS'overlays'
p18
(dp19
sS'finger'
p20
(I-1
I-1
tp21
sb.