ccopy_reg
_reconstructor
p0
(cstudyHelper
Stuff
p1
c__builtin__
object
p2
Ntp3
Rp4
(dp5
S'searchButton'
p6
(lp7
I0
aI0
aI0
aI0
asS'corners'
p8
(lp9
(F150.3555145263672
F0.4721358120441437
tp10
a(F324.3443908691406
F8.581503868103027
tp11
a(F453.034912109375
F257.7012939453125
tp12
a(F106.37486267089844
F148.44142150878906
tp13
asS'transform'
p14
cnumpy.core.multiarray
_reconstruct
p15
(cnumpy
ndarray
p16
(I0
tp17
S'b'
p18
tp19
Rp20
(I1
(I3
I3
tp21
cnumpy
dtype
p22
(S'f4'
p23
I0
I1
tp24
Rp25
(I3
S'<'
p26
NNNI-1
I-1
I0
tp27
bI00
S'\x0cWX@\xd0\x9a\x80?\x8d\\\xfe\xc3I\x10B\xbe\x89\x1d\x82@j\x99\xd4A\x05\xa9\xec:F\xc3\xd9;\x00\x00\x80?'
p28
tp29
bsS'boxes'
p30
(lp31
sS'mode'
p32
I0
sS'text'
p33
(dp34
sS'ocrItemsRemaining'
p35
I0
sS'transformInv'
p36
g15
(g16
(I0
tp37
g18
tp38
Rp39
(I1
(I3
I3
tp40
g25
I01
S'4<`>\xe2\x12[<\x13\xe2\xfd\xb9l\xd4|\xbe\xb7\xd5w>\x83b\x98\xbaC\xec\xebB\xec\xa6\xbd>H\xd8H?'
p41
tp42
bsS'overlays'
p43
(dp44
sS'finger'
p45
(I-1
I-1
tp46
sb.