ccopy_reg
_reconstructor
p0
(cstudyHelper
Stuff
p1
c__builtin__
object
p2
Ntp3
Rp4
(dp5
S'searchButton'
p6
(lp7
I0
aI0
aI0
aI0
asS'corners'
p8
(lp9
(F274.916748046875
F296.2662658691406
tp10
a(F446.11865234375
F333.31396484375
tp11
a(F303.50872802734375
F639.2064208984375
tp12
a(F174.54884338378906
F579.516845703125
tp13
asS'transform'
p14
cnumpy.core.multiarray
_reconstruct
p15
(cnumpy
ndarray
p16
(I0
tp17
S'b'
p18
tp19
Rp20
(I1
(I3
I3
tp21
cnumpy
dtype
p22
(S'f4'
p23
I0
I1
tp24
Rp25
(I3
S'<'
p26
NNNI-1
I-1
I0
tp27
bI00
S'\xe0\xf3\xea?\xfa\x81&?\xddT.\xc4\x91\x01k\xbe\xbc\xbf\x87?\xe6\x1b{\xc3\x97\x0cv:<\xa4\xb8\xb9\x00\x00\x80?'
p28
tp29
bsS'boxes'
p30
(lp31
sS'mode'
p32
I0
sS'text'
p33
(dp34
sS'ocrItemsRemaining'
p35
I0
sS'transformInv'
p36
g15
(g16
(I0
tp37
g18
tp38
Rp39
(I1
(I3
I3
tp40
g25
I01
S"@\xd4\xcd>\x86\xdb'\xbb&M\xc6\xb9\x18p+\xbeE\xcf\x83?\x13C\x08:\x98JnC\xf9e\x80C\x11\xe5]?"
p41
tp42
bsS'overlays'
p43
(dp44
sS'finger'
p45
(I-1
I-1
tp46
sb.