ccopy_reg
_reconstructor
p0
(cstudyHelper
Stuff
p1
c__builtin__
object
p2
Ntp3
Rp4
(dp5
S'searchButton'
p6
(lp7
I0
aI0
aI0
aI0
asS'corners'
p8
(lp9
(lp10
F100.27179718017578
aF112.5354995727539
aa(lp11
F472.731689453125
aF104.64875793457031
aa(lp12
F466.7962341308594
aF413.7709655761719
aa(lp13
F96.51240539550781
aF392.2395935058594
aasS'transform'
p14
cnumpy.core.multiarray
_reconstruct
p15
(cnumpy
ndarray
p16
(I0
tp17
S'b'
p18
tp19
Rp20
(I1
(I3
I3
tp21
cnumpy
dtype
p22
(S'f4'
p23
I0
I1
tp24
Rp25
(I3
S'<'
p26
NNNI-1
I-1
I0
tp27
bI00
S'UO\x91?\xa1\xfdy<\x16\x19\xe7\xc2\xa93\xb6<\xb5r\x86?\x94\xde\xf0\xc2V\x92\x989\x9e.I\xb7\x00\x00\x80?'
p28
tp29
bsS'boxes'
p30
(lp31
(lp32
I0
aI0
aI0
aI0
aa(lp33
F195.0
aF239.0
aF30.0
aF16.0
aa(lp34
F235.0
aF236.0
aF23.0
aF18.5
aa(lp35
F308.0
aF229.0
aF35.0
aF20.5
aa(lp36
F225.0
aF188.5
aF18.0
aF36.5
aa(lp37
F61.5
aF184.5
aF14.5
aF25.0
aa(lp38
I0
aI0
aI0
aI0
aa(lp39
I0
aI0
aI0
aI0
aa(lp40
I0
aI0
aI0
aI0
aa(lp41
I0
aI0
aI0
aI0
aa(lp42
F16.0
aF121.0
aF40.0
aF11.5
aa(lp43
I0
aI0
aI0
aI0
aa(lp44
F250.5
aF112.5
aF37.5
aF20.5
aa(lp45
F284.0
aF72.0
aF55.5
aF11.5
aa(lp46
F77.0
aF52.5
aF146.5
aF208.0
aa(lp47
F156.0
aF50.0
aF16.5
aF12.0
aa(lp48
F262.0
aF45.0
aF13.0
aF19.5
aa(lp49
F59.5
aF38.5
aF18.0
aF39.5
aa(lp50
F138.5
aF27.0
aF49.5
aF11.0
aasS'mode'
p51
I0
sS'text'
p52
(dp53
I1
VDive carves
p54
sI2
Vblank
p55
sI3
Vhwy 36
p56
sI4
VDillard's
p57
sI5
Vacy's
p58
sI10
VHarlan St,
p59
sI12
VS A
p60
sI13
VSheridan Blvd
p61
sI14
Vsears
p62
sI15
Vz
p63
sI16
Vblank
p64
sI17
VZ
p65
sI18
Vw 92nd ave
p66
ssS'ocrItemsRemaining'
p67
I0
sS'transformInv'
p68
g15
(g16
(I0
tp69
g18
tp70
Rp71
(I1
(I3
I3
tp72
g25
I01
S'\xb7([?\xc3\x83?\xbd\xb4\xe8\x82\xb9\xca\x809\xbcZ7t?/3w7\x0f\x1d\xc3B\x0e\xfa\xdaB\x7f\x11y?'
p73
tp74
bsS'overlays'
p75
(dp76
sS'finger'
p77
(I-1
I-1
tp78
sb.