ccopy_reg
_reconstructor
p0
(cstudyHelper
Stuff
p1
c__builtin__
object
p2
Ntp3
Rp4
(dp5
S'searchButton'
p6
(lp7
I0
aI0
aI0
aI0
asS'corners'
p8
(lp9
(F92.4195556640625
F53.425045013427734
tp10
a(F492.6143798828125
F61.66956329345703
tp11
a(F466.55023193359375
F391.768798828125
tp12
a(F75.3984375
F351.4281921386719
tp13
asS'transform'
p14
cnumpy.core.multiarray
_reconstruct
p15
(cnumpy
ndarray
p16
(I0
tp17
S'b'
p18
tp19
Rp20
(I1
(I3
I3
tp21
cnumpy
dtype
p22
(S'f4'
p23
I0
I1
tp24
Rp25
(I3
S'<'
p26
NNNI-1
I-1
I0
tp27
bI00
S'9F\x91??\xc3\x84=\xf5\xb5\xd8\xc2%\x14\xb0\xbc\xf1\x8b\x85?\xbf\x03W\xc2\xc9>\x949\xd7I&\xb8\x00\x00\x80?'
p28
tp29
bsS'boxes'
p30
(lp31
(lp32
F214.0
aF275.0
aF75.5
aF15.5
aa(lp33
F104.5
aF264.5
aF51.0
aF17.5
aa(lp34
F11.5
aF258.0
aF57.0
aF15.0
aa(lp35
F277.5
aF235.5
aF81.5
aF25.5
aa(lp36
F129.5
aF226.0
aF79.0
aF15.0
aa(lp37
F214.5
aF222.5
aF53.5
aF29.5
aa(lp38
F33.0
aF215.5
aF57.0
aF17.0
aa(lp39
F264.0
aF197.5
aF56.5
aF29.5
aa(lp40
F135.0
aF178.5
aF62.5
aF32.5
aa(lp41
F41.0
aF164.5
aF62.0
aF21.0
aa(lp42
F274.5
aF157.0
aF59.0
aF17.0
aa(lp43
F179.5
aF148.0
aF49.5
aF14.0
aa(lp44
F97.0
aF117.5
aF153.0
aF22.0
aa(lp45
F289.0
aF102.5
aF50.0
aF29.5
aa(lp46
F234.0
aF86.0
aF44.5
aF14.0
aa(lp47
F159.5
aF76.5
aF61.5
aF15.0
aa(lp48
F91.5
aF74.0
aF47.5
aF29.5
aa(lp49
F221.0
aF60.5
aF66.5
aF14.5
aa(lp50
F41.0
aF56.0
aF65.0
aF14.5
aa(lp51
F158.5
aF44.5
aF57.5
aF14.5
aa(lp52
F266.5
aF35.0
aF82.5
aF14.5
aa(lp53
F193.0
aF20.5
aF54.0
aF21.0
aasS'mode'
p54
I0
sS'text'
p55
(dp56
I0
VLake Shore
p57
sI1
VMarley
p58
sI2
VSevern
p59
sI3
VChesapeake Bay
p60
sI4
VGlen Burnie
p61
sI5
VRiviera Beach
p62
sI6
VDorsey
p63
sI7
VFort Howard
p64
sI8
VBaltimore Highlands
p65
sI9
VLansdown
p66
sI10
VEdgemere
p67
sI11
VDundalk
p68
sI12
VBALTIMORE
p69
sI13
VTurkey Point
p70
sI14
VEssex
p71
sI15
VRosedale
p72
sI16
VForest Park
p73
sI17
VKenwood
p74
sI18
VLochearn
p75
sI19
VOverlea
p76
sI20
VWhite Marsh
p77
sI21
VParkville
p78
ssS'ocrItemsRemaining'
p79
I0
sS'transformInv'
p80
g15
(g16
(I0
tp81
g18
tp82
Rp83
(I1
(I3
I3
tp84
g25
I01
S'\xc8\x8f[?\xb6\xe8\xa9;\xc3\x12~\xb9\xae9L\xbd\xe1\xcau?+\xcaZ8$\x81\xb4BP\xb0PB \xffy?'
p85
tp86
bsS'overlays'
p87
(dp88
sS'finger'
p89
(I-1
I-1
tp90
sb.