ccopy_reg
_reconstructor
p0
(cstudyHelper
Stuff
p1
c__builtin__
object
p2
Ntp3
Rp4
(dp5
S'searchButton'
p6
(lp7
I0
aI0
aI0
aI0
asS'corners'
p8
(lp9
(lp10
F81.34463500976562
aF36.85265350341797
aa(lp11
F405.0712890625
aF13.264126777648926
aa(lp12
F400.650390625
aF478.69024658203125
aa(lp13
F79.41451263427734
aF450.5263366699219
aasS'transform'
p14
cnumpy.core.multiarray
_reconstruct
p15
(cnumpy
ndarray
p16
(I0
tp17
S'b'
p18
tp19
Rp20
(I1
(I3
I3
tp21
cnumpy
dtype
p22
(S'f4'
p23
I0
I1
tp24
Rp25
(I3
S'<'
p26
NNNI-1
I-1
I0
tp27
bI00
S'l\xf0\xa4?\xd7\x02\xc5;\x1a\x15\xd2\xc2 \x19\xac=\xbc\x9d\x93?\x01XE\xc2\xed^\xd19\xfacc\xb7\x00\x00\x80?'
p28
tp29
bsS'boxes'
p30
(lp31
(lp32
F36.0
aF231.0
aF226.0
aF80.0
aa(lp33
F295.0
aF185.0
aF47.0
aF30.0
aa(lp34
I0
aI0
aI0
aI0
aa(lp35
F20.0
aF180.0
aF69.0
aF88.5
aa(lp36
F277.0
aF130.0
aF65.5
aF37.5
aa(lp37
F19.5
aF124.0
aF48.0
aF43.0
aa(lp38
F19.0
aF71.0
aF67.0
aF21.0
aa(lp39
F228.0
aF67.0
aF113.5
aF48.5
aa(lp40
F85.0
aF66.0
aF257.0
aF235.0
aa(lp41
F90.5
aF15.0
aF180.5
aF33.5
aasS'mode'
p42
I0
sS'text'
p43
(dp44
I0
Vhome
p45
sI1
Vfruit
p46
sI3
Vvegetable
p47
sI4
V24897
p48
sI5
VMilk, Yogurt & Cheese Group 2-3 SERVING
p49
sI6
VFATS, OILS
p50
sI7
VKEY
p51
sI8
Vmeat, poultry, fish
p52
sI9
VFood Guide Pyramid
p53
ssS'ocrItemsRemaining'
p54
I0
sS'transformInv'
p55
g15
(g16
(I0
tp56
g18
tp57
Rp58
(I1
(I3
I3
tp59
g25
I01
S"\xafv@?\x86\x93\x8a\xbdZ\xe3\x9d\xb9\x9e'D\xbb\xcb-^?\x02gY7\x9e\xa5\x9dB\x82\xd7\x0eB\xce\x10x?"
p60
tp61
bsS'overlays'
p62
(dp63
sS'finger'
p64
(I-1
I-1
tp65
sb.