ccopy_reg
_reconstructor
p0
(cstudyHelper
Stuff
p1
c__builtin__
object
p2
Ntp3
Rp4
(dp5
S'searchButton'
p6
(lp7
I0
aI0
aI0
aI0
asS'corners'
p8
(lp9
(lp10
F140.0396270751953
aF26.34354591369629
aa(lp11
F478.2591857910156
aF3.283353805541992
aa(lp12
F470.7076721191406
aF478.6402282714844
aa(lp13
F135.37258911132812
aF448.3217468261719
aasS'transform'
p14
cnumpy.core.multiarray
_reconstruct
p15
(cnumpy
ndarray
p16
(I0
tp17
S'b'
p18
tp19
Rp20
(I1
(I3
I3
tp21
cnumpy
dtype
p22
(S'f4'
p23
I0
I1
tp24
Rp25
(I3
S'<'
p26
NNNI-1
I-1
I0
tp27
bI00
S'\x15G\xa5?n\xfai<(35\xc3\xd9\xf6\xa4=\x008\x97?\xdf\x9b)\xc2\x80O\xcf9\xcc|3\xb7\x00\x00\x80?'
p28
tp29
bsS'boxes'
p30
(lp31
(lp32
F259.0
aF380.0
aF99.0
aF55.0
aa(lp33
I0
aI0
aI0
aI0
aa(lp34
I0
aI0
aI0
aI0
aa(lp35
F0.5
aF308.5
aF256.5
aF165.5
aa(lp36
F50.5
aF306.5
aF18.5
aF23.5
aa(lp37
I0
aI0
aI0
aI0
aa(lp38
F7.0
aF240.5
aF359.0
aF141.0
aa(lp39
I0
aI0
aI0
aI0
aa(lp40
I0
aI0
aI0
aI0
aa(lp41
F213.0
aF214.5
aF13.5
aF21.0
aa(lp42
F194.5
aF214.5
aF10.5
aF14.0
aa(lp43
I0
aI0
aI0
aI0
aa(lp44
I0
aI0
aI0
aI0
aa(lp45
F0.5
aF127.0
aF149.5
aF160.5
aa(lp46
F6.0
aF36.5
aF125.5
aF119.0
aa(lp47
F142.0
aF29.5
aF209.5
aF235.0
aasS'mode'
p48
I0
sS'text'
p49
(dp50
I0
Vfree '5 when you buy this Prilosec item 24.89 42-ct. Prilosec tablets
p51
sI3
VCentrum
p52
sI4
Vhome
p53
sI6
Vyour prescription for saving
p54
sI9
Vred
p55
sI10
Vedg
p56
sI13
Vhundreds of 30-day generics $4 hundreds of 90-day generics $10 your prescription for sav
p57
sI14
VEXPECT MORE. PAY LESS:
p58
sI15
VMETFORMIN 500MG
p59
ssS'ocrItemsRemaining'
p60
I0
sS'transformInv'
p61
g15
(g16
(I0
tp62
g18
tp63
Rp64
(I1
(I3
I3
tp65
g25
I01
S'L\xfa;?!\xd8w\xbd\xa6\x90\x98\xb9Mx\xfb\xbb\x16\xf0X?\xb8\x02K7:\xba\x04C\x7f\xbe\xc7A\x08\xa2r?'
p66
tp67
bsS'overlays'
p68
(dp69
sS'finger'
p70
(I-1
I-1
tp71
sb.